(dp1
S'all'
p2
I0
sS'lace'
p3
I18
sS'edd'
p4
I4
sS'scratch'
p5
I5
sS'iamge'
p6
I6
sS'demand'
p7
I737
sS'refcma'
p8
I8
sS'inarm'
p9
I9
sS'mnl'
p10
I11
sS'57b'
p11
I738
sS'go'
p12
I13
sS'ptv'
p13
I14
sS'displaying'
p14
I15
sS'predeparture'
p15
I16
sS'causes'
p16
I17
sS'144027'
p17
I925
sS'ware'
p18
I187
sS'29j'
p19
I21
sS'29k'
p20
I22
sS'doe'
p21
I1061
sS'29f'
p22
I23
sS'auh'
p23
I24
sS'29d'
p24
I25
sS'29b'
p25
I26
sS'29c'
p26
I27
sS'removal'
p27
I28
sS'to'
p28
I29
sS'program'
p29
I30
sS'swap'
p30
I31
sS'under'
p31
I32
sS'spillage'
p32
I33
sS'faols'
p33
I34
sS'case'
p34
I743
sS'mpd'
p35
I36
sS'downloading'
p36
I37
sS'sbplease'
p37
I39
sS'sdcard'
p38
I983
sS'lru'
p39
I40
sS'jack'
p40
I41
sS'stays'
p41
I42
sS'e510211'
p42
I43
sS'wontt'
p43
I44
sS'condition'
p44
I45
sS'cmm'
p45
I47
sS'cable'
p46
I48
sS'level'
p47
I49
sS'did'
p48
I50
sS'ref'
p49
I378
sS'button'
p50
I52
sS'applicable'
p51
I53
sS'cma'
p52
I54
sS'p'
I55
sS'booting'
p53
I56
sS'small'
p54
I57
sS'inopblankback'
p55
I59
sS'inspection'
p56
I60
sS'upper'
p57
I61
sS'says'
p58
I62
sS'39b'
p59
I376
sS'10c'
p60
I64
sS'repetitive'
p61
I65
sS'39a'
p62
I395
sS'sign'
p63
I67
sS'44j'
p64
I68
sS'zero'
p65
I69
sS'44h'
p66
I70
sS'video'
p67
I71
sS'displays'
p68
I72
sS'baseiction'
p69
I73
sS'download'
p70
I74
sS'n'
I751
sS'port'
p71
I76
sS'ecb'
p72
I384
sS'blue'
p73
I78
sS'headset'
p74
I79
sS'43j'
p75
I80
sS'unavailable'
p76
I81
sS'64f'
p77
I82
sS'giving'
p78
I83
sS'43g'
p79
I84
sS'43b'
p80
I85
sS'43c'
p81
I86
sS'no28f'
p82
I87
sS'no28g'
p83
I88
sS'current'
p84
I89
sS'eco'
p85
I385
sS'waiting'
p86
I91
sS'3h'
p87
I92
sS'goes'
p88
I93
sS'screeudio'
p89
I94
sS'3b'
p90
I58
sS'3a'
p91
I96
sS'couldnt'
p92
I991
sS'3f'
p93
I98
sS'funtion'
p94
I99
sS'3d'
p95
I100
sS'41d'
p96
I574
sS'inspect'
p97
I940
sS'18077344004'
p98
I104
sS'18077344006'
p99
I105
sS'modify'
p100
I106
sS'hkt'
p101
I107
sS'18077344002'
p102
I108
sS'hours'
p103
I688
sS'reported'
p104
I110
sS'upgrade'
p105
I576
sS'59e'
p106
I112
sS'59d'
p107
I113
sS'v0904797'
p108
I114
sS'address'
p109
I115
sS'19e'
p110
I756
sS'59h'
p111
I117
sS'interna'
p112
I118
sS'19f'
p113
I119
sS'change'
p114
I97
sS'wait'
p115
I122
sS'box'
p116
I123
sS'casing'
p117
I124
sS'52a'
p118
I125
sS'52b'
p119
I126
sS'52c'
p120
I127
sS'oma'
p121
I662
sS'inoperable'
p122
I128
sS'52h'
p123
I129
sS'reason'
p124
I391
sS'reports'
p125
I131
sS'liwuid'
p126
I132
sS'tv'
p127
I116
sS'accomplished'
p128
I134
sS'bom'
p129
I136
sS'social'
p130
I137
sS'action'
p131
I138
sS'missing'
p132
I664
sS'thats'
p133
I139
sS'campaign'
p134
I140
sS'apr'
p135
I141
sS'rebooting'
p136
I581
sS'transit'
p137
I143
sS'cosmetic'
p138
I144
sS'replace'
p139
I145
sS'screens'
p140
I146
sS'flt'
p141
I147
sS'tap'
p142
I148
sS'resets'
p143
I149
sS'29a'
p144
I150
sS'unit'
p145
I151
sS'bent'
p146
I152
sS'jan'
p147
I159
sS'use'
p148
I154
sS'from'
p149
I155
sS'pwer'
p150
I156
sS'working'
p151
I157
sS'removallarge'
p152
I158
sS'reapir'
p153
I836
sS'chk'
p154
I976
sS'avodinop'
p155
I160
sS'two'
p156
I161
sS'handset'
p157
I1052
sS'next'
p158
I162
sS'connector'
p159
I163
sS'few'
p160
I164
sS'displayin'
p161
I165
sS'splash'
p162
I166
sS'therefore'
p163
I167
sS'msg'
p164
I169
sS'tounch'
p165
I170
sS'msd'
p166
I171
sS'until'
p167
I172
sS'minor'
p168
I173
sS'scratched'
p169
I175
sS'acc'
p170
I950
sS'on'
p171
I951
sS'stucked'
p172
I178
sS'stable'
p173
I179
sS'44012'
p174
I180
sS'44010'
p175
I181
sS'elec'
p176
I808
sS'tested'
p177
I182
sS'functionalcheck'
p178
I183
sS'33k'
p179
I3
sS'scratches'
p180
I186
sS'mounted'
p181
I20
sS'33a'
p182
I188
sS'uservice'
p183
I189
sS'33b'
p184
I46
sS'armrest'
p185
I1006
sS'none'
p186
I192
sS'works'
p187
I897
sS'g'
I390
sS'hour'
p188
I194
sS'ecodistorded'
p189
I195
sS'deformed'
p190
I196
sS'thales'
p191
I322
sS'der'
p192
I198
sS'work'
p193
I199
sS'modified'
p194
I200
sS'worn'
p195
I201
sS'movies'
p196
I202
sS'remain'
p197
I203
sS'can'
p198
I205
sS'of'
p199
I957
sS'following'
p200
I206
sS'trans'
p201
I208
sS'didnt'
p202
I209
sS'deg'
p203
I211
sS'control'
p204
I212
sS'earphone'
p205
I214
sS'corrupted'
p206
I215
sS'indicated'
p207
I216
sS'accept'
p208
I218
sS'aaleso'
p209
I219
sS'61j'
p210
I220
sS'chin'
p211
I221
sS'unavail'
p212
I222
sS'serial'
p213
I223
sS'61a'
p214
I224
sS'61f'
p215
I225
sS'61g'
p216
I226
sS'61d'
p217
I227
sS'ofthe'
p218
I228
sS'needs'
p219
I229
sS'faulta'
p220
I230
sS'defective'
p221
I231
sS'eng'
p222
I232
sS'damage'
p223
I234
sS'stayed'
p224
I235
sS'freezes'
p225
I236
sS'1'
I237
sS'necessary'
p226
I882
sS'62599900544016r03'
p227
I239
sS'pins'
p228
I240
sS'srv'
p229
I965
sS'config'
p230
I242
sS'sim'
p231
I244
sS'stock'
p232
I245
sS'blacked'
p233
I246
sS'unserviceable'
p234
I247
sS'tried'
p235
I248
sS'communicating'
p236
I250
sS'replacing'
p237
I251
sS'stop'
p238
I600
sS'after'
p239
I253
sS'23a'
p240
I254
sS'bkk'
p241
I255
sS'55k'
p242
I10
sS'55d'
p243
I257
sS'mesg'
p244
I258
sS'response'
p245
I259
sS'55c'
p246
I260
sS'a'
I261
sS'purchase'
p247
I262
sS'threadsvdu'
p248
I263
sS'manpower'
p249
I264
sS'light'
p250
I265
sS'cbn'
p251
I1054
sS'lines'
p252
I266
sS'44015sb'
p253
I267
sS'upside'
p254
I268
sS'keeps'
p255
I269
sS'sb'
p256
I270
sS'tasg'
p257
I815
sS'software'
p258
I973
sS'31008185'
p259
I272
sS'playing'
p260
I273
sS'sd'
p261
I274
sS'help'
p262
I275
sS'repair'
p263
I974
sS'over'
p264
I278
sS'move'
p265
I279
sS'displayed'
p266
I280
sS'distortion'
p267
I281
sS'through'
p268
I283
sS'during'
p269
I606
sS'responsive'
p270
I286
sS'ffe'
p271
I287
sS'still'
p272
I288
sS'operative'
p273
I652
sS'blocked'
p274
I290
sS'messed'
p275
I291
sS'mod2'
p276
I292
sS'unreacheable'
p277
I608
sS'monitor'
p278
I294
sS'fit'
p279
I295
sS'tsi'
p280
I296
sS'fix'
p281
I297
sS'29'
p282
I298
sS'exhibits'
p283
I299
sS'pcu'
p284
I300
sS'symptoms'
p285
I301
sS'detected'
p286
I302
sS'restart'
p287
I610
sS'communication'
p288
I979
sS'cross'
p289
I785
sS'2016'
p290
I304
sS'2010'
p291
I720
sS'2012'
p292
I306
sS'wouldn'
p293
I307
sS'non'
p294
I308
sS'49h'
p295
I309
sS'49j'
p296
I310
sS'dac'
p297
I311
sS'49d'
p298
I312
sS'49e'
p299
I313
sS'49g'
p300
I314
sS'49a'
p301
I315
sS'49c'
p302
I316
sS'flicher'
p303
I317
sS'front'
p304
I318
sS'one'
p305
I420
sS'nop'
p306
I321
sS'wont'
p307
I323
sS'down'
p308
I985
sS'40e'
p309
I325
sS'workload'
p310
I326
sS'fails'
p311
I644
sS'drop'
p312
I327
sS'2x'
p313
I328
sS'identified'
p314
I329
sS'operation'
p315
I1085
sS'ife'
p316
I330
sS'aftwe'
p317
I331
sS'2g'
p318
I332
sS'l2'
p319
I333
sS'ecrs'
p320
I334
sS'l1'
p321
I335
sS'found'
p322
I337
sS'went'
p323
I338
sS'sil'
p324
I339
sS'repaired'
p325
I340
sS'side'
p326
I341
sS'2k'
p327
I342
sS'24e'
p328
I343
sS'36h45g41b'
p329
I336
sS'r'
I946
sS'24a'
p330
I233
sS'abnormal'
p331
I346
sS'24h'
p332
I347
sS'related'
p333
I348
sS'inverted'
p334
I349
sS'19c'
p335
I717
sS'58d'
p336
I350
sS'blanks'
p337
I351
sS'static'
p338
I191
sS'connect'
p339
I565
sS'58a'
p340
I354
sS'mds'
p341
I277
sS'functuion'
p342
I356
sS'58j'
p343
I357
sS'58k'
p344
I285
sS'out'
p345
I359
sS'shown'
p346
I360
sS'51j'
p347
I361
sS'network'
p348
I362
sS'entertainment'
p349
I364
sS'rep'
p350
I365
sS'dsu'
p351
I1
sS'51e'
p352
I213
sS'reboot'
p353
I368
sS'your'
p354
I993
sS'content'
p355
I370
sS're'
p356
I371
sS'44056'
p357
I372
sS'cwl'
p358
I373
sS'shipment'
p359
I374
sS'reader'
p360
I375
sS'malfunction'
p361
I978
sS'rea'
p362
I377
sS'issue'
p363
I51
sS'red'
p364
I379
sS'shows'
p365
I380
sS'sbs'
p366
I63
sS'8h'
p367
I382
sS'inop'
p368
I383
sS'3times'
p369
I77
sS'39k'
p370
I90
sS'hull'
p371
I386
sS'n449514'
p372
I387
sS'62599900544010'
p373
I430
sS'imafe'
p374
I389
sS'completely'
p375
I130
sS'base'
p376
I392
sS'upsidedow'
p377
I394
sS'62599900544016'
p378
I431
sS'loads'
p379
I397
sS'card'
p380
I398
sS'md5'
p381
I399
sS'rev01if'
p382
I802
sS'wheeling'
p383
I401
sS'androidscreen'
p384
I402
sS'couldn'
p385
I403
sS'thecurrent'
p386
I193
sS'sceen'
p387
I405
sS'stucks'
p388
I406
sS'could'
p389
I407
sS'times'
p390
I408
sS'turn'
p391
I410
sS'place'
p392
I411
sS'w'
I412
sS'unknown'
p393
I413
sS'transaction'
p394
I909
sS'vservice'
p395
I414
sS'stuck'
p396
I1001
sS'initial'
p397
I998
sS'tpcu'
p398
I417
sS'dont'
p399
I418
sS'number'
p400
I422
sS'i5000'
p401
I320
sS'spinning'
p402
I421
sS'done'
p403
I423
sS'44020sb'
p404
I999
sS'blank'
p405
I425
sS'message'
p406
I426
sS'fine'
p407
I571
sS'bonney'
p408
I427
sS'certainsb'
p409
I428
sS'little'
p410
I388
sS'checked'
p411
I396
sS'service'
p412
I433
sS'13498ar00'
p413
I434
sS'55a'
p414
I120
sS'swipe'
p415
I436
sS'traveller'
p416
I437
sS'system'
p417
I438
sS'hangs'
p418
I439
sS'tou'
p419
I440
sS'1a'
p420
I429
sS'1c'
p421
I442
sS'1b'
p422
I319
sS'1d'
p423
I444
sS'jed'
p424
I135
sS'cma44107'
p425
I446
sS'doesnt'
p426
I988
sS'1h'
p427
I448
sS'iaw'
p428
I449
sS'1j'
p429
I450
sS'recovered'
p430
I451
sS'gives'
p431
I452
sS'vid'
p432
I843
sS'1g'
p433
I453
sS'servo'
p434
I454
sS'that'
p435
I455
sS'completed'
p436
I457
sS'17c'
p437
I458
sS'helicoil'
p438
I753
sS'45j'
p439
I460
sS'part'
p440
I461
sS'ncl'
p441
I462
sS'pnl'
p442
I463
sS'62d'
p443
I464
sS'62k'
p444
I465
sS'off'
p445
I466
sS'45b'
p446
I467
sS'10e'
p447
I468
sS'45d'
p448
I469
sS'45e'
p449
I249
sS'11'
p450
I472
sS'sbkk'
p451
I473
sS'12'
p452
I474
sS'18f'
p453
I475
sS'showed'
p454
I476
sS'accordance'
p455
I477
sS'19'
p456
I478
sS'aal'
p457
I479
sS'scracthes'
p458
I480
sS'v2012'
p459
I842
sS'discolor'
p460
I481
sS'2touchscreen'
p461
I482
sS'store'
p462
I484
sS'embody'
p463
I485
sS'flashes'
p464
I486
sS'interactive'
p465
I488
sS'pre'
p466
I489
sS'7d'
p467
I703
sS'7c'
p468
I491
sS'7a'
p469
I492
sS'sw'
p470
I493
sS'svdu'
p471
I494
sS'44020'
p472
I495
sS'turned'
p473
I496
sS'defect'
p474
I497
sS'7h'
p475
I498
sS'20a'
p476
I499
sS'fail'
p477
I641
sS'20c'
p478
I501
sS'fter'
p479
I502
sS'20e'
p480
I503
sS'reset'
p481
I1029
sS'socil'
p482
I393
sS'complaintsd'
p483
I505
sS'20k'
p484
I506
sS'null'
p485
I507
sS'any'
p486
I508
sS'rax'
p487
I509
sS'car'
p488
I197
sS'screw'
p489
I510
sS'upgrading'
p490
I511
sS'mechanism'
p491
I512
sS'also'
p492
I845
sS'internal'
p493
I515
sS'take'
p494
I517
sS'which'
p495
I518
sS'ourinternal'
p496
I519
sS'even'
p497
I521
sS'play'
p498
I522
sS'doig'
p499
I523
sS'multiple'
p500
I524
sS'normal'
p501
I525
sS'quote'
p502
I526
sS'object'
p503
I527
sS'reach'
p504
I528
sS'phases'
p505
I624
sS'kal'
p506
I530
sS'stockscratch'
p507
I531
sS'75'
p508
I532
sS'micro'
p509
I922
sS'phase'
p510
I534
sS'inserted'
p511
I536
sS'43k'
p512
I441
sS'fualt'
p513
I539
sS'audio'
p514
I822
sS'32g'
p515
I541
sS'failure'
p516
I1020
sS'32j'
p517
I543
sS'32k'
p518
I544
sS'csreen'
p519
I545
sS'sometimes'
p520
I546
sS'request'
p521
I66
sS'shortly'
p522
I548
sS'32l'
p523
I549
sS'wwid'
p524
I487
sS'ashley'
p525
I809
sS'continusly'
p526
I551
sS'45k'
p527
I552
sS'error'
p528
I757
sS'64h'
p529
I554
sS'requirement'
p530
I626
sS'bulletin'
p531
I555
sS'imageturn'
p532
I556
sS'incorporate'
p533
I557
sS'ng0019114'
p534
I558
sS'no28d'
p535
I559
sS'flicker'
p536
I561
sS'maint'
p537
I562
sS'unreachable'
p538
I563
sS'no28e'
p539
I564
sS'e332933'
p540
I566
sS'planning'
p541
I567
sS'99a'
p542
I568
sS'fuzzy'
p543
I569
sS'corner'
p544
I570
sS'd2'
p545
I109
sS'find'
p546
I572
sS'slot'
p547
I101
sS'3k'
p548
I575
sS'41g'
p549
I111
sS'41a'
p550
I210
sS'failes'
p551
I578
sS'nrc2015b6538001200161g'
p552
I579
sS'menu'
p553
I580
sS'41h'
p554
I142
sS'screenunable'
p555
I582
sS'41j'
p556
I583
sS'44012sb'
p557
I584
sS'buttons'
p558
I153
sS'failed'
p559
I586
sS'only'
p560
I587
sS'unable'
p561
I651
sS'black'
p562
I589
sS'incryption'
p563
I590
sS'blace'
p564
I591
sS'flickers'
p565
I1028
sS'encrytion'
p566
I593
sS'do'
p567
I594
sS'touchscreen'
p568
I595
sS'2ea'
p569
I953
sS'displa'
p570
I207
sS'bend'
p571
I597
sS's100112vdu'
p572
I598
sS'inoperative'
p573
I599
sS'freezing'
p574
I252
sS'blinking'
p575
I601
sS'3c'
p576
I602
sS'enycryction'
p577
I603
sS'new'
p578
I95
sS'report'
p579
I605
sS'2'
I443
sS'awaiting'
p580
I607
sS'du'
p581
I293
sS'recertification'
p582
I609
sS'nh0085594'
p583
I303
sS'disply'
p584
I611
sS'54b'
p585
I612
sS'54c'
p586
I613
sS'54g'
p587
I614
sS'h'
I615
sS'distorded'
p588
I616
sS'pixelation'
p589
I617
sS'screennot'
p590
I353
sS'twice'
p591
I619
sS'bad'
p592
I620
sS'18k'
p593
I621
sS'release'
p594
I622
sS'x'
I623
sS'fixed'
p595
I168
sS'respond'
p596
I625
sS'38b'
p597
I419
sS'set'
p598
I627
sS'38d'
p599
I628
sS'ser'
p600
I629
sS'seq'
p601
I630
sS'unservible'
p602
I631
sS'38h'
p603
I632
sS'frame'
p604
I633
sS'2c'
p605
I832
sS'inoperabled'
p606
I635
sS'j1'
p607
I459
sS'module'
p608
I637
sS'seat'
p609
I638
sS'are'
p610
I639
sS'sea'
p611
I640
sS'corrupt'
p612
I500
sS'arm'
p613
I642
sS'03'
p614
I643
sS'00'
p615
I529
sS'01'
p616
I645
sS'movie'
p617
I646
sS'08'
p618
I647
sS'currently'
p619
I648
sS'please'
p620
I649
sS'3'
I650
sS'won'
p621
I588
sS'correctly'
p622
I653
sS'between'
p623
I654
sS'progress'
p624
I655
sS'hold'
p625
I656
sS'reading'
p626
I657
sS'across'
p627
I658
sS'18d'
p628
I659
sS'v2012if'
p629
I660
sS'available'
p630
I661
sS'notice'
p631
I636
sS'loose'
p632
I663
sS'opening'
p633
I256
sS'screen'
p634
I665
sS'37k'
p635
I456
sS'jedman'
p636
I666
sS'avod'
p637
I668
sS'cards'
p638
I669
sS'aircraft'
p639
I670
sS'31h'
p640
I671
sS'comm'
p641
I672
sS'no'
p642
I1068
sS'removaltouch'
p643
I1042
sS'31c'
p644
I673
sS'approval'
p645
I38
sS'31a'
p646
I675
sS'42jk'
p647
I667
sS'come'
p648
I676
sS'31e'
p649
I677
sS'31d'
p650
I722
sS'suggested'
p651
I238
sS'31k'
p652
I680
sS'c'
I681
sS'demodify'
p653
I682
sS'installation'
p654
I577
sS'tablet'
p655
I844
sS'nill'
p656
I685
sS'many'
p657
I520
sS'taking'
p658
I687
sS'flipped'
p659
I689
sS'connection'
p660
I432
sS'44107'
p661
I691
sS'credt'
p662
I674
sS'dated'
p663
I692
sS'intermiten'
p664
I533
sS'com'
p665
I694
sS'load'
p666
I695
sS'and'
p667
I696
sS'lev'
p668
I697
sS'passenger'
p669
I1046
sS'cc'
p670
I537
sS'16e'
p671
I699
sS'16f'
p672
I700
sS'16b'
p673
I701
sS'63a'
p674
I702
sS'63d'
p675
I704
sS'46h'
p676
I705
sS'46k'
p677
I706
sS'theaal'
p678
I243
sS'retreive'
p679
I709
sS'46g'
p680
I710
sS'46a'
p681
I711
sS'16d'
p682
I850
sS'46b'
p683
I712
sS'encryption'
p684
I713
sS'48h'
p685
I1050
sS'due'
p686
I714
sS'fastenedzero'
p687
I715
sS'push'
p688
I1109
sS'pa'
p689
I716
sS'39bseat'
p690
I121
sS'maintenance'
p691
I718
sS'offshelf'
p692
I513
sS'ph'
p693
I721
sS'48e'
p694
I723
sS'5h'
p695
I853
sS'eso33700'
p696
I679
sS'flight'
p697
I726
sS'6e'
p698
I727
sS'6f'
p699
I728
sS'bfs'
p700
I585
sS'25b'
p701
I729
sS'7k'
p702
I730
sS'plugged'
p703
I1075
sS'25a'
p704
I731
sS'stocklong'
p705
I732
sS'controller'
p706
I733
sS'heatsink'
p707
I734
sS'rev00if'
p708
I363
sS'func'
p709
I736
sS'bull'
p710
I7
sS'hme'
p711
I12
sS'57g'
p712
I739
sS'5g'
p713
I856
sS'57e'
p714
I741
sS'57d'
p715
I742
sS'sound'
p716
I35
sS'main'
p717
I744
sS'50j'
p718
I745
sS'external'
p719
I735
sS'frozen'
p720
I747
sS'operational'
p721
I748
sS'mount'
p722
I749
sS'darks'
p723
I750
sS'50a'
p724
I75
sS'will'
p725
I752
sS'20b'
p726
I754
sS'replaced'
p727
I755
sS'fault'
p728
I686
sS'pictures'
p729
I758
sS'cracked'
p730
I759
sS'fution'
p731
I760
sS'guide'
p732
I761
sS'vod'
p733
I762
sS'va'
p734
I763
sS'would'
p735
I955
sS'cont'
p736
I764
sS'then'
p737
I765
sS'svud'
p738
I766
sS'ip'
p739
I767
sS'is'
p740
I768
sS'distorted'
p741
I504
sS'it'
p742
I770
sS'reads'
p743
I771
sS'brake'
p744
I772
sS'numbe'
p745
I773
sS'in'
p746
I774
sS'ready'
p747
I775
sS'seattle'
p748
I777
sS'if'
p749
I778
sS'acccept'
p750
I779
sS'damaged'
p751
I780
sS'20j'
p752
I781
sS'3ea'
p753
I782
sS'23k'
p754
I366
sS'credit'
p755
I133
sS'pax'
p756
I783
sS'media'
p757
I784
sS's'
I690
sS'same'
p758
I786
sS'clearly'
p759
I787
sS'periviously'
p760
I788
sS'parts'
p761
I789
sS'gui'
p762
I790
sS'presb'
p763
I866
sS'modification'
p764
I792
sS'android'
p765
I793
sS'28e'
p766
I905
sS'status'
p767
I795
sS'incorrect'
p768
I1063
sS'used'
p769
I796
sS'23d'
p770
I797
sS'ng'
p771
I838
sS'nil'
p772
I798
sS'5e'
p773
I855
sS'reporting'
p774
I799
sS'upon'
p775
I800
sS'marking'
p776
I1065
sS'sys'
p777
I400
sS'wpn'
p778
I803
sS'abnml'
p779
I769
sS'discoloration'
p780
I805
sS'47g'
p781
I1066
sS'lower'
p782
I807
sS'unk'
p783
I693
sS'cauiton'
p784
I185
sS'intermittent'
p785
I810
sS'cant'
p786
I811
sS'tasb'
p787
I812
sS'failing'
p788
I490
sS'e55144'
p789
I814
sS'ccr'
p790
I174
sS'de'
p791
I816
sS'edge'
p792
I817
sS'solve'
p793
I818
sS'communications'
p794
I892
sS'y'
I819
sS'entry'
p795
I820
sS'the'
p796
I821
sS'343c'
p797
I540
sS'blankconnector'
p798
I823
sS'attrition'
p799
I990
sS'comment'
p800
I825
sS'r03'
p801
I826
sS'powering'
p802
I573
sS'26d'
p803
I829
sS'boot'
p804
I1072
sS'mao'
p805
I831
sS'removed'
p806
I1026
sS'seen'
p807
I833
sS'not'
p808
I834
sS'442420'
p809
I835
sS'seats'
p810
I634
sS'touch'
p811
I837
sS'glue'
p812
I409
sS'53g'
p813
I839
sS'53e'
p814
I840
sS'53d'
p815
I204
sS'53c'
p816
I284
sS'53b'
p817
I678
sS'53a'
p818
I684
sS'svdus'
p819
I846
sS'had'
p820
I847
sS'easa'
p821
I848
sS'53h'
p822
I849
sS'color'
p823
I698
sS'add'
p824
I851
sS'hing'
p825
I852
sS'4'
I724
sS'crack'
p826
I854
sS'displaued'
p827
I103
sS'elp'
p828
I740
sS'has'
p829
I857
sS'5a'
p830
I858
sS'match'
p831
I859
sS'real'
p832
I860
sS'40g'
p833
I861
sS'anouncement'
p834
I862
sS'flashing'
p835
I863
sS'28h'
p836
I881
sS'read'
p837
I865
sS'big'
p838
I791
sS'showing'
p839
I867
sS'dark'
p840
I868
sS'lcd'
p841
I869
sS'21e'
p842
I870
sS'21b'
p843
I871
sS'pop'
p844
I872
sS'background'
p845
I828
sS'21a'
p846
I874
sS'installed'
p847
I875
sS'world'
p848
I876
sS'opn'
p849
I877
sS'21j'
p850
I878
sS'rear'
p851
I879
sS'mod'
p852
I880
sS'insert'
p853
I864
sS'59'
p854
I804
sS'lost'
p855
I883
sS'28a'
p856
I435
sS'modication'
p857
I885
sS'28c'
p858
I886
sS'28b'
p859
I887
sS'pinwheels'
p860
I888
sS'28d'
p861
I889
sS'28g'
p862
I890
sS'intermittently'
p863
I891
sS'55'
p864
I884
sS'revisionof'
p865
I893
sS'frozenreset'
p866
I894
sS't'
I895
sS'flickering'
p867
I896
sS'inter'
p868
I483
sS'screeen'
p869
I514
sS'replacement'
p870
I900
sS'mom'
p871
I873
sS'right'
p872
I902
sS'sequence'
p873
I904
sS'40k'
p874
I471
sS'unsuccessful'
p875
I707
sS'back'
p876
I907
sS'dead'
p877
I908
sS'40j'
p878
I553
sS'certain'
p879
I1051
sS'thread'
p880
I404
sS'vsb'
p881
I911
sS'repeat'
p882
I912
sS'auhn'
p883
I913
sS'47e'
p884
I813
sS'loaded'
p885
I914
sS'30a'
p886
I289
sS'30b'
p887
I916
sS'30f'
p888
I917
sS'30g'
p889
I918
sS'was'
p890
I1007
sS'provided'
p891
I919
sS'icn'
p892
I920
sS'for'
p893
I921
sS'downloadunreachable'
p894
I516
sS'31ac'
p895
I923
sS'per'
p896
I924
sS'fod'
p897
I19
sS'does'
p898
I926
sS'screenblack'
p899
I927
sS'foc'
p900
I928
sS'eso'
p901
I929
sS'12j42d8j11j'
p902
I930
sS'reseted'
p903
I824
sS'mode'
p904
I932
sS'cord'
p905
I2
sS'be'
p906
I934
sS'cgk'
p907
I935
sS'53k'
p908
I936
sS'power'
p909
I937
sS'posi'
p910
I938
sS'dropped'
p911
I939
sS'burn'
p912
I102
sS'update'
p913
I941
sS'broken'
p914
I942
sS'pinwheeling'
p915
I943
sS'tdr'
p916
I944
sS'nml'
p917
I945
sS'maintence'
p918
I535
sS'by'
p919
I947
sS'lights'
p920
I948
sS'panel'
p921
I949
sS'plug'
p922
I176
sS'42h'
p923
I177
sS'42k'
p924
I952
sS'42j'
p925
I184
sS'ok'
p926
I954
sS'socket'
p927
I190
sS'42a'
p928
I956
sS'soft'
p929
I898
sS'42c'
p930
I958
sS'42b'
p931
I959
sS'42e'
p932
I960
sS'42d'
p933
I961
sS'serviceable'
p934
I962
sS'scdu'
p935
I963
sS'cmas'
p936
I964
sS'plus'
p937
I241
sS'airline'
p938
I966
sS'waded'
p939
I967
sS'44k58e'
p940
I968
sS'60a'
p941
I1092
sS'toucscreen'
p942
I381
sS'ot'
p943
I971
sS'or'
p944
I972
sS'dispaly'
p945
I271
sS'rev03'
p946
I276
sS'rev00'
p947
I975
sS'rev'
p948
I367
sS'22j'
p949
I977
sS'7a28e44a37h'
p950
I344
sS'idd'
p951
I970
sS'into'
p952
I305
sS'22d'
p953
I981
sS'22c'
p954
I982
sS'functional'
p955
I903
sS'headphone'
p956
I984
sS'56h'
p957
I324
sS'services'
p958
I986
sS'56j'
p959
I987
sS'56k'
p960
I447
sS'freeze'
p961
I989
sS'13498ar00if'
p962
I345
sS'56b'
p963
I560
sS'56d'
p964
I992
sS'56e'
p965
I369
sS'56g'
p966
I994
sS'preservice'
p967
I995
sS'm'
I1089
sS'log'
p968
I996
sS'housing'
p969
I997
sS'there'
p970
I416
sS'long'
p971
I424
sS'avail'
p972
I1000
sS'resetx3'
p973
I794
sS'workshop'
p974
I1002
sS'low'
p975
I1003
sS'way'
p976
I1004
sS'pinwheel'
p977
I1005
sS'icon'
p978
I538
sS'bubble'
p979
I217
sS'mounting'
p980
I1008
sS'42f'
p981
I1009
sS'function'
p982
I1010
sS'became'
p983
I1011
sS'rju'
p984
I1012
sS'pwr'
p985
I1013
sS'complete'
p986
I1014
sS'fpga'
p987
I1015
sS'attempted'
p988
I1016
sS'31g'
p989
I1017
sS'but'
p990
I1018
sS'volume'
p991
I1019
sS'shroud'
p992
I542
sS'properly'
p993
I1021
sS'24k'
p994
I1022
sS'filed'
p995
I1023
sS'remote'
p996
I1100
sS'line'
p997
I1025
sS'trying'
p998
I899
sS'with'
p999
I1027
sS'wazy'
p1000
I592
sS'info'
p1001
I415
sS'pull'
p1002
I1030
sS'responding'
p1003
I1031
sS'distored'
p1004
I1032
sS'improved'
p1005
I683
sS'cid'
p1006
I1033
sS'inside'
p1007
I1034
sS'up'
p1008
I1035
sS'us'
p1009
I1036
sS'moive'
p1010
I1037
sS'customers'
p1011
I1038
sS'dirty'
p1012
I1039
sS'faded'
p1013
I1040
sS'continuously'
p1014
I1041
sS'58b'
p1015
I352
sS'problem'
p1016
I1043
sS'display'
p1017
I1044
sS'intermitently'
p1018
I1045
sS'separated'
p1019
I910
sS'required'
p1020
I1102
sS'discolored'
p1021
I1047
sS'48j'
p1022
I1048
sS'pin'
p1023
I1049
sS'25k'
p1024
I725
sS'cover'
p1025
I547
sS'tpmu'
p1026
I708
sS'pic'
p1027
I1053
sS'48c'
p1028
I776
sS'remove'
p1029
I618
sS'deep'
p1030
I1055
sS'an'
p1031
I1056
sS'as'
p1032
I1057
sS'at'
p1033
I1058
sS'our'
p1034
I355
sS'pip'
p1035
I1060
sS'currentrevision'
p1036
I604
sS'face'
p1037
I550
sS'check'
p1038
I1062
sS'46j'
p1039
I906
sS'47c'
p1040
I1064
sS'functions'
p1041
I801
sS'foundmessg'
p1042
I806
sS'47d'
p1043
I1067
sS'calibration'
p1044
I282
sS'47j'
p1045
I1069
sS'47'
p1046
I1070
sS'1k'
p1047
I470
sS'relax'
p1048
I1071
sS'when'
p1049
I830
sS'rs'
p1050
I1073
sS'invalid'
p1051
I1074
sS'monitors'
p1052
I358
sS'started'
p1053
I1076
sS'bracket'
p1054
I1077
sS'5'
I1078
sS'test'
p1055
I1079
sS'e36292'
p1056
I1080
sS'rev03tdr'
p1057
I1081
sS'noresponse'
p1058
I1082
sS'revision'
p1059
I1083
sS'creen'
p1060
I901
sS'picture'
p1061
I1084
sS'44015'
p1062
I746
sS'pinwheelsplease'
p1063
I1086
sS'faultblue'
p1064
I1087
sS'sdxc'
p1065
I1088
sS'795'
p1066
I445
sS'dented'
p1067
I1090
sS'loading'
p1068
I841
sS'fell'
p1069
I1091
sS'15e'
p1070
I969
sS'15d'
p1071
I1093
sS'15g'
p1072
I1094
sS'15f'
p1073
I1095
sS'15k'
p1074
I1096
sS'scratchy'
p1075
I1097
sS'unless'
p1076
I915
sS'unresponsive'
p1077
I1098
sS'requirementrev'
p1078
I1099
sS'e'
I1024
sS'home'
p1079
I1059
sS'hellicoil'
p1080
I1101
sS'bottom'
p1081
I827
sS'locate'
p1082
I933
sS'sva'
p1083
I1103
sS'corrputed'
p1084
I931
sS'no41g41h28g'
p1085
I1104
sS'seatback'
p1086
I1105
sS'u'
I1106
sS'invaild'
p1087
I1107
sS'image'
p1088
I980
sS'time'
p1089
I1108
sS'recognize'
p1090
I719
sS'respnding'
p1091
I1110
sS'4d'
p1092
I1111
sS'4a'
p1093
I1112
sS'18c'
p1094
I596
s.(lp1
S'all'
p2
aS'dsu'
p3
aS'cord'
p4
aS'33k'
p5
aS'edd'
p6
aS'scratch'
p7
aS'iamge'
p8
aS'bull'
p9
aS'refcma'
p10
aS'inarm'
p11
aS'55k'
p12
aS'mnl'
p13
aS'hme'
p14
aS'go'
p15
aS'ptv'
p16
aS'displaying'
p17
aS'predeparture'
p18
aS'causes'
p19
aS'lace'
p20
aS'fod'
p21
aS'mounted'
p22
aS'29j'
p23
aS'29k'
p24
aS'29f'
p25
aS'auh'
p26
aS'29d'
p27
aS'29b'
p28
aS'29c'
p29
aS'removal'
p30
aS'to'
p31
aS'program'
p32
aS'swap'
p33
aS'under'
p34
aS'spillage'
p35
aS'faols'
p36
aS'sound'
p37
aS'mpd'
p38
aS'downloading'
p39
aS'approval'
p40
aS'sbplease'
p41
aS'lru'
p42
aS'jack'
p43
aS'stays'
p44
aS'e510211'
p45
aS'wontt'
p46
aS'condition'
p47
aS'33b'
p48
aS'cmm'
p49
aS'cable'
p50
aS'level'
p51
aS'did'
p52
aS'issue'
p53
aS'button'
p54
aS'applicable'
p55
aS'cma'
p56
aS'p'
aS'booting'
p57
aS'small'
p58
aS'3b'
p59
aS'inopblankback'
p60
aS'inspection'
p61
aS'upper'
p62
aS'says'
p63
aS'sbs'
p64
aS'10c'
p65
aS'repetitive'
p66
aS'request'
p67
aS'sign'
p68
aS'44j'
p69
aS'zero'
p70
aS'44h'
p71
aS'video'
p72
aS'displays'
p73
aS'baseiction'
p74
aS'download'
p75
aS'50a'
p76
aS'port'
p77
aS'3times'
p78
aS'blue'
p79
aS'headset'
p80
aS'43j'
p81
aS'unavailable'
p82
aS'64f'
p83
aS'giving'
p84
aS'43g'
p85
aS'43b'
p86
aS'43c'
p87
aS'no28f'
p88
aS'no28g'
p89
aS'current'
p90
aS'39k'
p91
aS'waiting'
p92
aS'3h'
p93
aS'goes'
p94
aS'screeudio'
p95
aS'new'
p96
aS'3a'
p97
aS'change'
p98
aS'3f'
p99
aS'funtion'
p100
aS'3d'
p101
aS'slot'
p102
aS'burn'
p103
aS'displaued'
p104
aS'18077344004'
p105
aS'18077344006'
p106
aS'modify'
p107
aS'hkt'
p108
aS'18077344002'
p109
aS'd2'
p110
aS'reported'
p111
aS'41g'
p112
aS'59e'
p113
aS'59d'
p114
aS'v0904797'
p115
aS'address'
p116
aS'tv'
p117
aS'59h'
p118
aS'interna'
p119
aS'19f'
p120
aS'55a'
p121
aS'39bseat'
p122
aS'wait'
p123
aS'box'
p124
aS'casing'
p125
aS'52a'
p126
aS'52b'
p127
aS'52c'
p128
aS'inoperable'
p129
aS'52h'
p130
aS'completely'
p131
aS'reports'
p132
aS'liwuid'
p133
aS'credit'
p134
aS'accomplished'
p135
aS'jed'
p136
aS'bom'
p137
aS'social'
p138
aS'action'
p139
aS'thats'
p140
aS'campaign'
p141
aS'apr'
p142
aS'41h'
p143
aS'transit'
p144
aS'cosmetic'
p145
aS'replace'
p146
aS'screens'
p147
aS'flt'
p148
aS'tap'
p149
aS'resets'
p150
aS'29a'
p151
aS'unit'
p152
aS'bent'
p153
aS'buttons'
p154
aS'use'
p155
aS'from'
p156
aS'pwer'
p157
aS'working'
p158
aS'removallarge'
p159
aS'jan'
p160
aS'avodinop'
p161
aS'two'
p162
aS'next'
p163
aS'connector'
p164
aS'few'
p165
aS'displayin'
p166
aS'splash'
p167
aS'therefore'
p168
aS'fixed'
p169
aS'msg'
p170
aS'tounch'
p171
aS'msd'
p172
aS'until'
p173
aS'minor'
p174
aS'ccr'
p175
aS'scratched'
p176
aS'plug'
p177
aS'42h'
p178
aS'stucked'
p179
aS'stable'
p180
aS'44012'
p181
aS'44010'
p182
aS'tested'
p183
aS'functionalcheck'
p184
aS'42j'
p185
aS'cauiton'
p186
aS'scratches'
p187
aS'ware'
p188
aS'33a'
p189
aS'uservice'
p190
aS'socket'
p191
aS'static'
p192
aS'none'
p193
aS'thecurrent'
p194
aS'hour'
p195
aS'ecodistorded'
p196
aS'deformed'
p197
aS'car'
p198
aS'der'
p199
aS'work'
p200
aS'modified'
p201
aS'worn'
p202
aS'movies'
p203
aS'remain'
p204
aS'53d'
p205
aS'can'
p206
aS'following'
p207
aS'displa'
p208
aS'trans'
p209
aS'didnt'
p210
aS'41a'
p211
aS'deg'
p212
aS'control'
p213
aS'51e'
p214
aS'earphone'
p215
aS'corrupted'
p216
aS'indicated'
p217
aS'bubble'
p218
aS'accept'
p219
aS'aaleso'
p220
aS'61j'
p221
aS'chin'
p222
aS'unavail'
p223
aS'serial'
p224
aS'61a'
p225
aS'61f'
p226
aS'61g'
p227
aS'61d'
p228
aS'ofthe'
p229
aS'needs'
p230
aS'faulta'
p231
aS'defective'
p232
aS'eng'
p233
aS'24a'
p234
aS'damage'
p235
aS'stayed'
p236
aS'freezes'
p237
aS'1'
aS'suggested'
p238
aS'62599900544016r03'
p239
aS'pins'
p240
aS'plus'
p241
aS'config'
p242
aS'theaal'
p243
aS'sim'
p244
aS'stock'
p245
aS'blacked'
p246
aS'unserviceable'
p247
aS'tried'
p248
aS'45e'
p249
aS'communicating'
p250
aS'replacing'
p251
aS'freezing'
p252
aS'after'
p253
aS'23a'
p254
aS'bkk'
p255
aS'opening'
p256
aS'55d'
p257
aS'mesg'
p258
aS'response'
p259
aS'55c'
p260
aS'a'
aS'purchase'
p261
aS'threadsvdu'
p262
aS'manpower'
p263
aS'light'
p264
aS'lines'
p265
aS'44015sb'
p266
aS'upside'
p267
aS'keeps'
p268
aS'sb'
p269
aS'dispaly'
p270
aS'31008185'
p271
aS'playing'
p272
aS'sd'
p273
aS'help'
p274
aS'rev03'
p275
aS'mds'
p276
aS'over'
p277
aS'move'
p278
aS'displayed'
p279
aS'distortion'
p280
aS'calibration'
p281
aS'through'
p282
aS'53c'
p283
aS'58k'
p284
aS'responsive'
p285
aS'ffe'
p286
aS'still'
p287
aS'30a'
p288
aS'blocked'
p289
aS'messed'
p290
aS'mod2'
p291
aS'du'
p292
aS'monitor'
p293
aS'fit'
p294
aS'tsi'
p295
aS'fix'
p296
aS'29'
p297
aS'exhibits'
p298
aS'pcu'
p299
aS'symptoms'
p300
aS'detected'
p301
aS'nh0085594'
p302
aS'2016'
p303
aS'into'
p304
aS'2012'
p305
aS'wouldn'
p306
aS'non'
p307
aS'49h'
p308
aS'49j'
p309
aS'dac'
p310
aS'49d'
p311
aS'49e'
p312
aS'49g'
p313
aS'49a'
p314
aS'49c'
p315
aS'flicher'
p316
aS'front'
p317
aS'1b'
p318
aS'i5000'
p319
aS'nop'
p320
aS'thales'
p321
aS'wont'
p322
aS'56h'
p323
aS'40e'
p324
aS'workload'
p325
aS'drop'
p326
aS'2x'
p327
aS'identified'
p328
aS'ife'
p329
aS'aftwe'
p330
aS'2g'
p331
aS'l2'
p332
aS'ecrs'
p333
aS'l1'
p334
aS'36h45g41b'
p335
aS'found'
p336
aS'went'
p337
aS'sil'
p338
aS'repaired'
p339
aS'side'
p340
aS'2k'
p341
aS'24e'
p342
aS'7a28e44a37h'
p343
aS'13498ar00if'
p344
aS'abnormal'
p345
aS'24h'
p346
aS'related'
p347
aS'inverted'
p348
aS'58d'
p349
aS'blanks'
p350
aS'58b'
p351
aS'screennot'
p352
aS'58a'
p353
aS'our'
p354
aS'functuion'
p355
aS'58j'
p356
aS'monitors'
p357
aS'out'
p358
aS'shown'
p359
aS'51j'
p360
aS'network'
p361
aS'rev00if'
p362
aS'entertainment'
p363
aS'rep'
p364
aS'23k'
p365
aS'rev'
p366
aS'reboot'
p367
aS'56e'
p368
aS'content'
p369
aS're'
p370
aS'44056'
p371
aS'cwl'
p372
aS'shipment'
p373
aS'reader'
p374
aS'39b'
p375
aS'rea'
p376
aS'ref'
p377
aS'red'
p378
aS'shows'
p379
aS'toucscreen'
p380
aS'8h'
p381
aS'inop'
p382
aS'ecb'
p383
aS'eco'
p384
aS'hull'
p385
aS'n449514'
p386
aS'little'
p387
aS'imafe'
p388
aS'g'
aS'reason'
p389
aS'base'
p390
aS'socil'
p391
aS'upsidedow'
p392
aS'39a'
p393
aS'checked'
p394
aS'loads'
p395
aS'card'
p396
aS'md5'
p397
aS'sys'
p398
aS'wheeling'
p399
aS'androidscreen'
p400
aS'couldn'
p401
aS'thread'
p402
aS'sceen'
p403
aS'stucks'
p404
aS'could'
p405
aS'times'
p406
aS'glue'
p407
aS'turn'
p408
aS'place'
p409
aS'w'
aS'unknown'
p410
aS'vservice'
p411
aS'info'
p412
aS'there'
p413
aS'tpcu'
p414
aS'dont'
p415
aS'38b'
p416
aS'one'
p417
aS'spinning'
p418
aS'number'
p419
aS'done'
p420
aS'long'
p421
aS'blank'
p422
aS'message'
p423
aS'bonney'
p424
aS'certainsb'
p425
aS'1a'
p426
aS'62599900544010'
p427
aS'62599900544016'
p428
aS'connection'
p429
aS'service'
p430
aS'13498ar00'
p431
aS'28a'
p432
aS'swipe'
p433
aS'traveller'
p434
aS'system'
p435
aS'hangs'
p436
aS'tou'
p437
aS'43k'
p438
aS'1c'
p439
aS'2'
aS'1d'
p440
aS'795'
p441
aS'cma44107'
p442
aS'56k'
p443
aS'1h'
p444
aS'iaw'
p445
aS'1j'
p446
aS'recovered'
p447
aS'gives'
p448
aS'1g'
p449
aS'servo'
p450
aS'that'
p451
aS'37k'
p452
aS'completed'
p453
aS'17c'
p454
aS'j1'
p455
aS'45j'
p456
aS'part'
p457
aS'ncl'
p458
aS'pnl'
p459
aS'62d'
p460
aS'62k'
p461
aS'off'
p462
aS'45b'
p463
aS'10e'
p464
aS'45d'
p465
aS'1k'
p466
aS'40k'
p467
aS'11'
p468
aS'sbkk'
p469
aS'12'
p470
aS'18f'
p471
aS'showed'
p472
aS'accordance'
p473
aS'19'
p474
aS'aal'
p475
aS'scracthes'
p476
aS'discolor'
p477
aS'2touchscreen'
p478
aS'inter'
p479
aS'store'
p480
aS'embody'
p481
aS'flashes'
p482
aS'wwid'
p483
aS'interactive'
p484
aS'pre'
p485
aS'failing'
p486
aS'7c'
p487
aS'7a'
p488
aS'sw'
p489
aS'svdu'
p490
aS'44020'
p491
aS'turned'
p492
aS'defect'
p493
aS'7h'
p494
aS'20a'
p495
aS'corrupt'
p496
aS'20c'
p497
aS'fter'
p498
aS'20e'
p499
aS'distorted'
p500
aS'complaintsd'
p501
aS'20k'
p502
aS'null'
p503
aS'any'
p504
aS'rax'
p505
aS'screw'
p506
aS'upgrading'
p507
aS'mechanism'
p508
aS'offshelf'
p509
aS'screeen'
p510
aS'internal'
p511
aS'downloadunreachable'
p512
aS'take'
p513
aS'which'
p514
aS'ourinternal'
p515
aS'many'
p516
aS'even'
p517
aS'play'
p518
aS'doig'
p519
aS'multiple'
p520
aS'normal'
p521
aS'quote'
p522
aS'object'
p523
aS'reach'
p524
aS'00'
p525
aS'kal'
p526
aS'stockscratch'
p527
aS'75'
p528
aS'intermiten'
p529
aS'phase'
p530
aS'maintence'
p531
aS'inserted'
p532
aS'cc'
p533
aS'icon'
p534
aS'fualt'
p535
aS'343c'
p536
aS'32g'
p537
aS'shroud'
p538
aS'32j'
p539
aS'32k'
p540
aS'csreen'
p541
aS'sometimes'
p542
aS'cover'
p543
aS'shortly'
p544
aS'32l'
p545
aS'face'
p546
aS'continusly'
p547
aS'45k'
p548
aS'40j'
p549
aS'64h'
p550
aS'bulletin'
p551
aS'imageturn'
p552
aS'incorporate'
p553
aS'ng0019114'
p554
aS'no28d'
p555
aS'56b'
p556
aS'flicker'
p557
aS'maint'
p558
aS'unreachable'
p559
aS'no28e'
p560
aS'connect'
p561
aS'e332933'
p562
aS'planning'
p563
aS'99a'
p564
aS'fuzzy'
p565
aS'corner'
p566
aS'fine'
p567
aS'find'
p568
aS'powering'
p569
aS'41d'
p570
aS'3k'
p571
aS'upgrade'
p572
aS'installation'
p573
aS'failes'
p574
aS'nrc2015b6538001200161g'
p575
aS'menu'
p576
aS'rebooting'
p577
aS'screenunable'
p578
aS'41j'
p579
aS'44012sb'
p580
aS'bfs'
p581
aS'failed'
p582
aS'only'
p583
aS'won'
p584
aS'black'
p585
aS'incryption'
p586
aS'blace'
p587
aS'wazy'
p588
aS'encrytion'
p589
aS'do'
p590
aS'touchscreen'
p591
aS'18c'
p592
aS'bend'
p593
aS's100112vdu'
p594
aS'inoperative'
p595
aS'stop'
p596
aS'blinking'
p597
aS'3c'
p598
aS'enycryction'
p599
aS'currentrevision'
p600
aS'report'
p601
aS'during'
p602
aS'awaiting'
p603
aS'unreacheable'
p604
aS'recertification'
p605
aS'restart'
p606
aS'disply'
p607
aS'54b'
p608
aS'54c'
p609
aS'54g'
p610
aS'h'
aS'distorded'
p611
aS'pixelation'
p612
aS'remove'
p613
aS'twice'
p614
aS'bad'
p615
aS'18k'
p616
aS'release'
p617
aS'x'
aS'phases'
p618
aS'respond'
p619
aS'requirement'
p620
aS'set'
p621
aS'38d'
p622
aS'ser'
p623
aS'seq'
p624
aS'unservible'
p625
aS'38h'
p626
aS'frame'
p627
aS'seats'
p628
aS'inoperabled'
p629
aS'notice'
p630
aS'module'
p631
aS'seat'
p632
aS'are'
p633
aS'sea'
p634
aS'fail'
p635
aS'arm'
p636
aS'03'
p637
aS'fails'
p638
aS'01'
p639
aS'movie'
p640
aS'08'
p641
aS'currently'
p642
aS'please'
p643
aS'3'
aS'unable'
p644
aS'operative'
p645
aS'correctly'
p646
aS'between'
p647
aS'progress'
p648
aS'hold'
p649
aS'reading'
p650
aS'across'
p651
aS'18d'
p652
aS'v2012if'
p653
aS'available'
p654
aS'oma'
p655
aS'loose'
p656
aS'missing'
p657
aS'screen'
p658
aS'jedman'
p659
aS'42jk'
p660
aS'avod'
p661
aS'cards'
p662
aS'aircraft'
p663
aS'31h'
p664
aS'comm'
p665
aS'31c'
p666
aS'credt'
p667
aS'31a'
p668
aS'come'
p669
aS'31e'
p670
aS'53b'
p671
aS'eso33700'
p672
aS'31k'
p673
aS'c'
aS'demodify'
p674
aS'improved'
p675
aS'53a'
p676
aS'nill'
p677
aS'fault'
p678
aS'taking'
p679
aS'hours'
p680
aS'flipped'
p681
aS's'
aS'44107'
p682
aS'dated'
p683
aS'unk'
p684
aS'com'
p685
aS'load'
p686
aS'and'
p687
aS'lev'
p688
aS'color'
p689
aS'16e'
p690
aS'16f'
p691
aS'16b'
p692
aS'63a'
p693
aS'7d'
p694
aS'63d'
p695
aS'46h'
p696
aS'46k'
p697
aS'unsuccessful'
p698
aS'tpmu'
p699
aS'retreive'
p700
aS'46g'
p701
aS'46a'
p702
aS'46b'
p703
aS'encryption'
p704
aS'due'
p705
aS'fastenedzero'
p706
aS'pa'
p707
aS'19c'
p708
aS'maintenance'
p709
aS'recognize'
p710
aS'2010'
p711
aS'ph'
p712
aS'31d'
p713
aS'48e'
p714
aS'4'
aS'25k'
p715
aS'flight'
p716
aS'6e'
p717
aS'6f'
p718
aS'25b'
p719
aS'7k'
p720
aS'25a'
p721
aS'stocklong'
p722
aS'controller'
p723
aS'heatsink'
p724
aS'external'
p725
aS'func'
p726
aS'demand'
p727
aS'57b'
p728
aS'57g'
p729
aS'elp'
p730
aS'57e'
p731
aS'57d'
p732
aS'case'
p733
aS'main'
p734
aS'50j'
p735
aS'44015'
p736
aS'frozen'
p737
aS'operational'
p738
aS'mount'
p739
aS'darks'
p740
aS'n'
aS'will'
p741
aS'helicoil'
p742
aS'20b'
p743
aS'replaced'
p744
aS'19e'
p745
aS'error'
p746
aS'pictures'
p747
aS'cracked'
p748
aS'fution'
p749
aS'guide'
p750
aS'vod'
p751
aS'va'
p752
aS'cont'
p753
aS'then'
p754
aS'svud'
p755
aS'ip'
p756
aS'is'
p757
aS'abnml'
p758
aS'it'
p759
aS'reads'
p760
aS'brake'
p761
aS'numbe'
p762
aS'in'
p763
aS'ready'
p764
aS'48c'
p765
aS'seattle'
p766
aS'if'
p767
aS'acccept'
p768
aS'damaged'
p769
aS'20j'
p770
aS'3ea'
p771
aS'pax'
p772
aS'media'
p773
aS'cross'
p774
aS'same'
p775
aS'clearly'
p776
aS'periviously'
p777
aS'parts'
p778
aS'gui'
p779
aS'big'
p780
aS'modification'
p781
aS'android'
p782
aS'resetx3'
p783
aS'status'
p784
aS'used'
p785
aS'23d'
p786
aS'nil'
p787
aS'reporting'
p788
aS'upon'
p789
aS'functions'
p790
aS'rev01if'
p791
aS'wpn'
p792
aS'59'
p793
aS'discoloration'
p794
aS'foundmessg'
p795
aS'lower'
p796
aS'elec'
p797
aS'ashley'
p798
aS'intermittent'
p799
aS'cant'
p800
aS'tasb'
p801
aS'47e'
p802
aS'e55144'
p803
aS'tasg'
p804
aS'de'
p805
aS'edge'
p806
aS'solve'
p807
aS'y'
aS'entry'
p808
aS'the'
p809
aS'audio'
p810
aS'blankconnector'
p811
aS'reseted'
p812
aS'comment'
p813
aS'r03'
p814
aS'bottom'
p815
aS'background'
p816
aS'26d'
p817
aS'when'
p818
aS'mao'
p819
aS'2c'
p820
aS'seen'
p821
aS'not'
p822
aS'442420'
p823
aS'reapir'
p824
aS'touch'
p825
aS'ng'
p826
aS'53g'
p827
aS'53e'
p828
aS'loading'
p829
aS'v2012'
p830
aS'vid'
p831
aS'tablet'
p832
aS'also'
p833
aS'svdus'
p834
aS'had'
p835
aS'easa'
p836
aS'53h'
p837
aS'16d'
p838
aS'add'
p839
aS'hing'
p840
aS'5h'
p841
aS'crack'
p842
aS'5e'
p843
aS'5g'
p844
aS'has'
p845
aS'5a'
p846
aS'match'
p847
aS'real'
p848
aS'40g'
p849
aS'anouncement'
p850
aS'flashing'
p851
aS'insert'
p852
aS'read'
p853
aS'presb'
p854
aS'showing'
p855
aS'dark'
p856
aS'lcd'
p857
aS'21e'
p858
aS'21b'
p859
aS'pop'
p860
aS'mom'
p861
aS'21a'
p862
aS'installed'
p863
aS'world'
p864
aS'opn'
p865
aS'21j'
p866
aS'rear'
p867
aS'mod'
p868
aS'28h'
p869
aS'necessary'
p870
aS'lost'
p871
aS'55'
p872
aS'modication'
p873
aS'28c'
p874
aS'28b'
p875
aS'pinwheels'
p876
aS'28d'
p877
aS'28g'
p878
aS'intermittently'
p879
aS'communications'
p880
aS'revisionof'
p881
aS'frozenreset'
p882
aS't'
aS'flickering'
p883
aS'works'
p884
aS'soft'
p885
aS'trying'
p886
aS'replacement'
p887
aS'creen'
p888
aS'right'
p889
aS'functional'
p890
aS'sequence'
p891
aS'28e'
p892
aS'46j'
p893
aS'back'
p894
aS'dead'
p895
aS'transaction'
p896
aS'separated'
p897
aS'vsb'
p898
aS'repeat'
p899
aS'auhn'
p900
aS'loaded'
p901
aS'unless'
p902
aS'30b'
p903
aS'30f'
p904
aS'30g'
p905
aS'provided'
p906
aS'icn'
p907
aS'for'
p908
aS'micro'
p909
aS'31ac'
p910
aS'per'
p911
aS'144027'
p912
aS'does'
p913
aS'screenblack'
p914
aS'foc'
p915
aS'eso'
p916
aS'12j42d8j11j'
p917
aS'corrputed'
p918
aS'mode'
p919
aS'locate'
p920
aS'be'
p921
aS'cgk'
p922
aS'53k'
p923
aS'power'
p924
aS'posi'
p925
aS'dropped'
p926
aS'inspect'
p927
aS'update'
p928
aS'broken'
p929
aS'pinwheeling'
p930
aS'tdr'
p931
aS'nml'
p932
aS'r'
aS'by'
p933
aS'lights'
p934
aS'panel'
p935
aS'acc'
p936
aS'on'
p937
aS'42k'
p938
aS'2ea'
p939
aS'ok'
p940
aS'would'
p941
aS'42a'
p942
aS'of'
p943
aS'42c'
p944
aS'42b'
p945
aS'42e'
p946
aS'42d'
p947
aS'serviceable'
p948
aS'scdu'
p949
aS'cmas'
p950
aS'srv'
p951
aS'airline'
p952
aS'waded'
p953
aS'44k58e'
p954
aS'15e'
p955
aS'idd'
p956
aS'ot'
p957
aS'or'
p958
aS'software'
p959
aS'repair'
p960
aS'rev00'
p961
aS'chk'
p962
aS'22j'
p963
aS'malfunction'
p964
aS'communication'
p965
aS'image'
p966
aS'22d'
p967
aS'22c'
p968
aS'sdcard'
p969
aS'headphone'
p970
aS'down'
p971
aS'services'
p972
aS'56j'
p973
aS'doesnt'
p974
aS'freeze'
p975
aS'attrition'
p976
aS'couldnt'
p977
aS'56d'
p978
aS'your'
p979
aS'56g'
p980
aS'preservice'
p981
aS'log'
p982
aS'housing'
p983
aS'initial'
p984
aS'44020sb'
p985
aS'avail'
p986
aS'stuck'
p987
aS'workshop'
p988
aS'low'
p989
aS'way'
p990
aS'pinwheel'
p991
aS'armrest'
p992
aS'was'
p993
aS'mounting'
p994
aS'42f'
p995
aS'function'
p996
aS'became'
p997
aS'rju'
p998
aS'pwr'
p999
aS'complete'
p1000
aS'fpga'
p1001
aS'attempted'
p1002
aS'31g'
p1003
aS'but'
p1004
aS'volume'
p1005
aS'failure'
p1006
aS'properly'
p1007
aS'24k'
p1008
aS'filed'
p1009
aS'e'
aS'line'
p1010
aS'removed'
p1011
aS'with'
p1012
aS'flickers'
p1013
aS'reset'
p1014
aS'pull'
p1015
aS'responding'
p1016
aS'distored'
p1017
aS'cid'
p1018
aS'inside'
p1019
aS'up'
p1020
aS'us'
p1021
aS'moive'
p1022
aS'customers'
p1023
aS'dirty'
p1024
aS'faded'
p1025
aS'continuously'
p1026
aS'removaltouch'
p1027
aS'problem'
p1028
aS'display'
p1029
aS'intermitently'
p1030
aS'passenger'
p1031
aS'discolored'
p1032
aS'48j'
p1033
aS'pin'
p1034
aS'48h'
p1035
aS'certain'
p1036
aS'handset'
p1037
aS'pic'
p1038
aS'cbn'
p1039
aS'deep'
p1040
aS'an'
p1041
aS'as'
p1042
aS'at'
p1043
aS'home'
p1044
aS'pip'
p1045
aS'doe'
p1046
aS'check'
p1047
aS'incorrect'
p1048
aS'47c'
p1049
aS'marking'
p1050
aS'47g'
p1051
aS'47d'
p1052
aS'no'
p1053
aS'47j'
p1054
aS'47'
p1055
aS'relax'
p1056
aS'boot'
p1057
aS'rs'
p1058
aS'invalid'
p1059
aS'plugged'
p1060
aS'started'
p1061
aS'bracket'
p1062
aS'5'
aS'test'
p1063
aS'e36292'
p1064
aS'rev03tdr'
p1065
aS'noresponse'
p1066
aS'revision'
p1067
aS'picture'
p1068
aS'operation'
p1069
aS'pinwheelsplease'
p1070
aS'faultblue'
p1071
aS'sdxc'
p1072
aS'm'
aS'dented'
p1073
aS'fell'
p1074
aS'60a'
p1075
aS'15d'
p1076
aS'15g'
p1077
aS'15f'
p1078
aS'15k'
p1079
aS'scratchy'
p1080
aS'unresponsive'
p1081
aS'requirementrev'
p1082
aS'remote'
p1083
aS'hellicoil'
p1084
aS'required'
p1085
aS'sva'
p1086
aS'no41g41h28g'
p1087
aS'seatback'
p1088
aS'u'
aS'invaild'
p1089
aS'time'
p1090
aS'push'
p1091
aS'respnding'
p1092
aS'4d'
p1093
aS'4a'
p1094
a.