(dp1
S'all'
p2
I0
sS'code'
p3
I7
sS'lace'
p4
I15
sS'edd'
p5
I3
sS'scratch'
p6
I4
sS'iamge'
p7
I5
sS'refcma'
p8
I6
sS'mnl'
p9
I8
sS'hme'
p10
I759
sS'go'
p11
I11
sS'displaying'
p12
I12
sS'predeparture'
p13
I13
sS'causes'
p14
I14
sS'144027'
p15
I941
sS'hold'
p16
I17
sS'29j'
p17
I18
sS'29k'
p18
I19
sS'doe'
p19
I1079
sS'tv'
p20
I20
sS'auh'
p21
I21
sS'29d'
p22
I22
sS'29b'
p23
I23
sS'29c'
p24
I24
sS'removal'
p25
I25
sS'to'
p26
I26
sS'program'
p27
I28
sS'swap'
p28
I29
sS'under'
p29
I30
sS'spillage'
p30
I31
sS'faols'
p31
I32
sS'case'
p32
I764
sS'downloading'
p33
I34
sS'sbplease'
p34
I35
sS'lru'
p35
I37
sS'jack'
p36
I38
sS'stays'
p37
I39
sS'blanked'
p38
I40
sS'wontt'
p39
I42
sS'condition'
p40
I43
sS'entire'
p41
I44
sS'cmm'
p42
I45
sS'cml'
p43
I46
sS'442503'
p44
I47
sS'cable'
p45
I48
sS'level'
p46
I49
sS'did'
p47
I50
sS'issue'
p48
I391
sS'button'
p49
I52
sS'cma'
p50
I742
sS'p'
I54
sS'car'
p51
I201
sS'small'
p52
I56
sS'loads'
p53
I58
sS'inspection'
p54
I59
sS'upper'
p55
I60
sS'says'
p56
I61
sS'installation'
p57
I590
sS'toucscreen'
p58
I395
sS'10c'
p59
I64
sS'repetitive'
p60
I65
sS'10f'
p61
I66
sS'39a'
p62
I410
sS'sign'
p63
I68
sS'44j'
p64
I537
sS'zero'
p65
I70
sS'44h'
p66
I71
sS'video'
p67
I72
sS'displays'
p68
I73
sS'47g'
p69
I1085
sS'baseiction'
p70
I74
sS'download'
p71
I75
sS'inop'
p72
I397
sS'functioning'
p73
I521
sS'port'
p74
I79
sS'even'
p75
I80
sS'headset'
p76
I81
sS'43j'
p77
I83
sS'unavailable'
p78
I84
sS'64f'
p79
I85
sS'giving'
p80
I86
sS'43g'
p81
I87
sS'43b'
p82
I88
sS'no28e'
p83
I89
sS'no28f'
p84
I90
sS'43a'
p85
I91
sS'current'
p86
I92
sS'eco'
p87
I400
sS'waiting'
p88
I94
sS'3h'
p89
I95
sS'goes'
p90
I97
sS'screeudio'
p91
I98
sS'3b'
p92
I99
sS'3a'
p93
I100
sS'couldnt'
p94
I1008
sS'trdr'
p95
I101
sS'3f'
p96
I102
sS'funtion'
p97
I103
sS'3d'
p98
I104
sS'41d'
p99
I587
sS'39h'
p100
I554
sS'18077344004'
p101
I108
sS'loose'
p102
I109
sS'modify'
p103
I110
sS'hkt'
p104
I111
sS'18077344002'
p105
I112
sS'hours'
p106
I113
sS'reported'
p107
I114
sS'upgrade'
p108
I589
sS'59e'
p109
I117
sS'59d'
p110
I118
sS'v0904797'
p111
I119
sS'address'
p112
I120
sS'19e'
p113
I121
sS'59h'
p114
I122
sS'59k'
p115
I123
sS'19f'
p116
I124
sS'19c'
p117
I126
sS'wait'
p118
I127
sS'heatsink'
p119
I128
sS'52a'
p120
I129
sS'52b'
p121
I130
sS'52c'
p122
I131
sS'inoperable'
p123
I132
sS'52h'
p124
I133
sS'reason'
p125
I406
sS'reports'
p126
I135
sS'liwuid'
p127
I137
sS'credit'
p128
I138
sS'accomplished'
p129
I139
sS'base'
p130
I407
sS'action'
p131
I141
sS'missing'
p132
I678
sS'thats'
p133
I143
sS'campaign'
p134
I144
sS'apr'
p135
I145
sS'rebooting'
p136
I595
sS'transit'
p137
I147
sS'cosmetic'
p138
I148
sS'replace'
p139
I149
sS'screens'
p140
I150
sS'flt'
p141
I151
sS'resets'
p142
I152
sS'29a'
p143
I153
sS'u'
I1131
sS'unit'
p144
I154
sS'corrupted'
p145
I155
sS'bfs'
p146
I599
sS'use'
p147
I157
sS'from'
p148
I158
sS'pwer'
p149
I159
sS'working'
p150
I160
sS'reapir'
p151
I854
sS'chk'
p152
I161
sS'avodinop'
p153
I162
sS'two'
p154
I163
sS'reprot'
p155
I164
sS'next'
p156
I165
sS'connector'
p157
I166
sS'few'
p158
I167
sS'displayin'
p159
I168
sS'splash'
p160
I169
sS'therefore'
p161
I171
sS'msg'
p162
I172
sS'tounch'
p163
I173
sS'msd'
p164
I174
sS'until'
p165
I175
sS'minor'
p166
I176
sS'scratched'
p167
I178
sS'communicationss'
p168
I634
sS'42h'
p169
I967
sS'stucked'
p170
I181
sS'stable'
p171
I182
sS'44010'
p172
I1014
sS'elec'
p173
I828
sS'tested'
p174
I185
sS'functionalcheck'
p175
I186
sS'42j'
p176
I969
sS'cauiton'
p177
I2
sS'scratches'
p178
I189
sS'mounted'
p179
I190
sS'33a'
p180
I191
sS'uservice'
p181
I193
sS'33b'
p182
I106
sS'fly'
p183
I195
sS'none'
p184
I196
sS'thecurrent'
p185
I69
sS'hour'
p186
I198
sS'ecodistorded'
p187
I199
sS'this'
p188
I204
sS'thales'
p189
I55
sS'der'
p190
I202
sS'work'
p191
I203
sS'modified'
p192
I205
sS'worn'
p193
I206
sS'movies'
p194
I207
sS'can'
p195
I208
sS'of'
p196
I974
sS'following'
p197
I209
sS'detached'
p198
I210
sS'trans'
p199
I211
sS'didnt'
p200
I212
sS'foundmessage'
p201
I213
sS'deg'
p202
I214
sS'control'
p203
I215
sS'earphone'
p204
I218
sS'bent'
p205
I219
sS'indicated'
p206
I220
sS'42e'
p207
I977
sS'orimproved'
p208
I223
sS'accept'
p209
I224
sS'aaleso'
p210
I225
sS'61j'
p211
I226
sS'chin'
p212
I228
sS'unavail'
p213
I296
sS'61b'
p214
I230
sS'serial'
p215
I231
sS'61a'
p216
I232
sS'61f'
p217
I233
sS'61g'
p218
I234
sS'61d'
p219
I235
sS'ofthe'
p220
I236
sS'needs'
p221
I237
sS'faulta'
p222
I238
sS'defective'
p223
I239
sS'eng'
p224
I240
sS'displa'
p225
I609
sS'damage'
p226
I242
sS'freezes'
p227
I243
sS'1'
I244
sS'necessary'
p228
I898
sS'62599900544016r03'
p229
I245
sS'29f'
p230
I246
sS'pins'
p231
I247
sS'41c'
p232
I592
sS'config'
p233
I249
sS'theaal'
p234
I939
sS'sim'
p235
I250
sS'stock'
p236
I251
sS'blacked'
p237
I252
sS'blanks'
p238
I253
sS'tried'
p239
I254
sS'communicating'
p240
I256
sS'23d'
p241
I257
sS'stop'
p242
I613
sS'after'
p243
I259
sS'23a'
p244
I260
sS'bkk'
p245
I262
sS'blinking'
p246
I614
sS'55k'
p247
I265
sS'date'
p248
I266
sS'55d'
p249
I267
sS'mesg'
p250
I269
sS'response'
p251
I270
sS'mao'
p252
I271
sS'man'
p253
I272
sS'a'
I273
sS'purchase'
p254
I274
sS'threadsvdu'
p255
I275
sS'light'
p256
I277
sS'cbn'
p257
I1070
sS'lines'
p258
I278
sS'44015sb'
p259
I279
sS'upside'
p260
I281
sS'keeps'
p261
I282
sS'sb'
p262
I283
sS'tasg'
p263
I835
sS'software'
p264
I991
sS'31008185'
p265
I285
sS'playing'
p266
I286
sS'sd'
p267
I287
sS'volume'
p268
I1037
sS'help'
p269
I288
sS'comms'
p270
I289
sS'repair'
p271
I992
sS'over'
p272
I291
sS'move'
p273
I292
sS'displayed'
p274
I293
sS'distortion'
p275
I294
sS'through'
p276
I295
sS'53c'
p277
I860
sS'during'
p278
I619
sS'responsive'
p279
I298
sS'ffe'
p280
I299
sS'still'
p281
I300
sS'sb62599900544016'
p282
I301
sS'operative'
p283
I302
sS'blocked'
p284
I303
sS'messed'
p285
I304
sS'mod2'
p286
I305
sS'monitor'
p287
I307
sS'fit'
p288
I308
sS'tsi'
p289
I309
sS'fix'
p290
I310
sS'29'
p291
I311
sS'exhibits'
p292
I312
sS'pcu'
p293
I313
sS'symptoms'
p294
I314
sS'detected'
p295
I315
sS'restart'
p296
I623
sS'communication'
p297
I996
sS'2016'
p298
I318
sS'2010'
p299
I740
sS'wouldn'
p300
I320
sS'non'
p301
I321
sS'49h'
p302
I322
sS'49j'
p303
I323
sS'dac'
p304
I324
sS'49d'
p305
I325
sS'49e'
p306
I326
sS'49g'
p307
I327
sS'49a'
p308
I328
sS'49c'
p309
I823
sS'flicher'
p310
I330
sS'not'
p311
I331
sS'inspect'
p312
I955
sS'i5000'
p313
I434
sS'nop'
p314
I334
sS'wont'
p315
I335
sS'down'
p316
I1002
sS'40e'
p317
I337
sS'workload'
p318
I338
sS'drop'
p319
I341
sS'2x'
p320
I342
sS'identified'
p321
I343
sS'ng0365412'
p322
I344
sS'ife'
p323
I345
sS'aftwe'
p324
I346
sS'2g'
p325
I347
sS'l2'
p326
I348
sS'ecrs'
p327
I349
sS'l1'
p328
I350
sS'deformed'
p329
I200
sS'found'
p330
I351
sS'went'
p331
I352
sS'sil'
p332
I353
sS'repaired'
p333
I354
sS'gui'
p334
I355
sS'2k'
p335
I356
sS'24e'
p336
I357
sS'malfunction'
p337
I358
sS'24a'
p338
I241
sS'24h'
p339
I360
sS'related'
p340
I361
sS'inverted'
p341
I362
sS'58d'
p342
I363
sS'unserviceable'
p343
I364
sS'58b'
p344
I27
sS'connect'
p345
I578
sS'58a'
p346
I367
sS'mds'
p347
I368
sS'functuion'
p348
I276
sS'58j'
p349
I370
sS'58k'
p350
I297
sS'out'
p351
I372
sS'shown'
p352
I373
sS'51j'
p353
I374
sS'network'
p354
I375
sS'entertainment'
p355
I377
sS'screennot'
p356
I633
sS'rep'
p357
I378
sS'dsu'
p358
I1
sS'51e'
p359
I217
sS'reboot'
p360
I381
sS'56e'
p361
I382
sS'content'
p362
I383
sS're'
p363
I384
sS'44056'
p364
I385
sS'cwl'
p365
I386
sS'shipment'
p366
I387
sS'reader'
p367
I388
sS'offline'
p368
I339
sS'rea'
p369
I390
sS'ref'
p370
I51
sS'acc'
p371
I966
sS'red'
p372
I392
sS'shows'
p373
I393
sS'sb18077344002'
p374
I394
sS'39b'
p375
I63
sS'8h'
p376
I396
sS'sb18077344006'
p377
I76
sS'ecb'
p378
I398
sS'sb18077344004'
p379
I399
sS'39k'
p380
I93
sS'hull'
p381
I401
sS'booting'
p382
I402
sS'n449514'
p383
I403
sS'little'
p384
I443
sS'imafe'
p385
I405
sS'g'
I419
sS'completely'
p386
I134
sS'abnormally'
p387
I140
sS'upsidedow'
p388
I409
sS'62599900544016'
p389
I444
sS'inopblankback'
p390
I412
sS'card'
p391
I413
sS'md5'
p392
I414
sS'sys'
p393
I821
sS'wheeling'
p394
I640
sS'androidscreen'
p395
I417
sS'service'
p396
I445
sS'thread'
p397
I197
sS'sceen'
p398
I420
sS'stucks'
p399
I421
sS'could'
p400
I422
sS'times'
p401
I423
sS'turn'
p402
I82
sS'place'
p403
I425
sS'w'
I426
sS'unknown'
p404
I447
sS'transaction'
p405
I924
sS'vservice'
p406
I428
sS'stuck'
p407
I1019
sS'waitentertainment'
p408
I430
sS'dont'
p409
I432
sS'number'
p410
I433
sS'one'
p411
I333
sS'spinning'
p412
I436
sS'done'
p413
I437
sS'blank'
p414
I438
sS'message'
p415
I439
sS'bonney'
p416
I441
sS'certainsb'
p417
I442
sS'62599900544010'
p418
I404
sS'checked'
p419
I411
sS'connection'
p420
I803
sS'18077403'
p421
I418
sS'13498ar00'
p422
I446
sS'55a'
p423
I125
sS'swipe'
p424
I448
sS'traveller'
p425
I449
sS'system'
p426
I450
sS'hangs'
p427
I451
sS'tou'
p428
I452
sS'1a'
p429
I453
sS'1c'
p430
I454
sS'1b'
p431
I332
sS'1d'
p432
I456
sS'1g'
p433
I457
sS'doesnt'
p434
I1005
sS'1h'
p435
I459
sS'iaw'
p436
I460
sS'1j'
p437
I461
sS'store'
p438
I192
sS'gives'
p439
I463
sS's100112'
p440
I465
sS'jed'
p441
I466
sS'servo'
p442
I467
sS'that'
p443
I468
sS'shelf'
p444
I469
sS'completed'
p445
I470
sS'17c'
p446
I471
sS'helicoil'
p447
I772
sS'45h'
p448
I473
sS'45j'
p449
I474
sS'45k'
p450
I77
sS'pnl'
p451
I476
sS'62d'
p452
I227
sS'shortly'
p453
I478
sS'10e'
p454
I183
sS'45d'
p455
I480
sS'44012sb'
p456
I62
sS'45g'
p457
I483
sS'18c'
p458
I263
sS'12'
p459
I485
sS'18f'
p460
I486
sS'showed'
p461
I488
sS'accordance'
p462
I489
sS'19'
p463
I490
sS'18k'
p464
I136
sS'scracthes'
p465
I493
sS'discolor'
p466
I495
sS'2touchscreen'
p467
I496
sS'recovered'
p468
I462
sS'embody'
p469
I498
sS'flashes'
p470
I499
sS'interactive'
p471
I500
sS'pre'
p472
I501
sS'retreive'
p473
I502
sS'7a'
p474
I503
sS'sw'
p475
I170
sS'svdu'
p476
I505
sS'7k'
p477
I506
sS'defect'
p478
I507
sS'7h'
p479
I508
sS'20a'
p480
I765
sS'corrupt'
p481
I657
sS'20c'
p482
I511
sS'20b'
p483
I512
sS'20e'
p484
I513
sS'reset'
p485
I1047
sS'socil'
p486
I408
sS'need'
p487
I515
sS'20k'
p488
I516
sS'null'
p489
I517
sS'any'
p490
I518
sS'rax'
p491
I519
sS'screw'
p492
I520
sS'inspections'
p493
I522
sS'check'
p494
I1080
sS'upgrading'
p495
I523
sS'contact'
p496
I837
sS'note'
p497
I524
sS'edge'
p498
I525
sS'take'
p499
I527
sS'which'
p500
I528
sS'dmfthan'
p501
I529
sS'blue'
p502
I532
sS'play'
p503
I533
sS'doig'
p504
I534
sS'multiple'
p505
I535
sS'normal'
p506
I536
sS'quote'
p507
I538
sS'object'
p508
I539
sS'inerted'
p509
I540
sS'fails'
p510
I659
sS'kal'
p511
I542
sS'75'
p512
I543
sS'01'
p513
I660
sS'plus'
p514
I982
sS'micro'
p515
I937
sS'services'
p516
I546
sS'inserted'
p517
I548
sS'cc'
p518
I867
sS'43k'
p519
I435
sS'fualt'
p520
I551
sS'audio'
p521
I843
sS'32g'
p522
I553
sS'failure'
p523
I1038
sS'32j'
p524
I556
sS'doc'
p525
I557
sS'into'
p526
I997
sS'sometimes'
p527
I559
sS'request'
p528
I67
sS'offlineno'
p529
I561
sS'32l'
p530
I562
sS'wwid'
p531
I563
sS'ashley'
p532
I829
sS'continusly'
p533
I564
sS'part'
p534
I475
sS'error'
p535
I776
sS'64h'
p536
I567
sS'bulletin'
p537
I568
sS'imageturn'
p538
I569
sS'shop'
p539
I570
sS'ng0019114'
p540
I572
sS'r00'
p541
I654
sS'no28d'
p542
I574
sS'flicker'
p543
I575
sS'maint'
p544
I576
sS'unreachable'
p545
I477
sS'43c'
p546
I577
sS'e332933'
p547
I579
sS'colors'
p548
I580
sS'planning'
p549
I581
sS'99a'
p550
I582
sS'fuzzy'
p551
I583
sS'corner'
p552
I584
sS'fine'
p553
I585
sS'find'
p554
I586
sS'slot'
p555
I105
sS'3k'
p556
I588
sS'41g'
p557
I116
sS'41a'
p558
I547
sS'failes'
p559
I591
sS'nrc2015b6538001200161g'
p560
I427
sS'notice'
p561
I676
sS'menu'
p562
I593
sS'41h'
p563
I146
sS'screenunable'
p564
I596
sS'41j'
p565
I597
sS'45e'
p566
I255
sS'buttons'
p567
I156
sS'failed'
p568
I600
sS'only'
p569
I601
sS'couldn'
p570
I492
sS'black'
p571
I603
sS'incryption'
p572
I604
sS'blace'
p573
I605
sS'flickers'
p574
I1046
sS'do'
p575
I607
sS'touchscreen'
p576
I608
sS'sbkk'
p577
I484
sS'bend'
p578
I610
sS's100112vdu'
p579
I809
sS'inoperative'
p580
I612
sS'freezing'
p581
I258
sS'blankinoperative'
p582
I264
sS'3c'
p583
I41
sS'corrputed'
p584
I1129
sS'enycryction'
p585
I616
sS'new'
p586
I530
sS'report'
p587
I618
sS'2'
I455
sS'awaiting'
p588
I620
sS'du'
p589
I306
sS'recertification'
p590
I622
sS'nh0085594'
p591
I316
sS'disply'
p592
I624
sS'54b'
p593
I625
sS'54c'
p594
I626
sS'bar'
p595
I627
sS'54g'
p596
I628
sS'54j'
p597
I629
sS'h'
I630
sS'distorded'
p598
I631
sS'pixelation'
p599
I632
sS'remove'
p600
I366
sS'twice'
p601
I635
sS'bad'
p602
I636
sS'21b'
p603
I889
sS'18'
p604
I491
sS'release'
p605
I638
sS'x'
I639
sS'fixed'
p606
I187
sS'respond'
p607
I641
sS'requirement'
p608
I642
sS'set'
p609
I643
sS'38d'
p610
I644
sS'ser'
p611
I645
sS'seq'
p612
I646
sS'unservible'
p613
I647
sS'38h'
p614
I648
sS'frame'
p615
I649
sS'2c'
p616
I851
sS'mom'
p617
I891
sS'j1'
p618
I472
sS'module'
p619
I652
sS'blurred'
p620
I479
sS'are'
p621
I655
sS'sea'
p622
I656
sS'fail'
p623
I510
sS'03'
p624
I658
sS'phases'
p625
I541
sS'detect'
p626
I544
sS'repiar'
p627
I661
sS'movie'
p628
I57
sS'08'
p629
I663
sS'currently'
p630
I571
sS'please'
p631
I665
sS'48e'
p632
I1068
sS'3'
I666
sS'won'
p633
I602
sS'correctly'
p634
I668
sS'between'
p635
I669
sS'progress'
p636
I670
sS'reading'
p637
I671
sS'across'
p638
I672
sS'18d'
p639
I673
sS'side'
p640
I674
sS'available'
p641
I675
sS'oma'
p642
I651
sS'18077344006'
p643
I677
sS'opening'
p644
I664
sS'screen'
p645
I679
sS'jedman'
p646
I680
sS'42jk'
p647
I681
sS'avod'
p648
I682
sS'cards'
p649
I683
sS'aircraft'
p650
I684
sS'31h'
p651
I685
sS'comm'
p652
I686
sS'no'
p653
I1087
sS'removaltouch'
p654
I1058
sS'31c'
p655
I688
sS'approval'
p656
I689
sS'31a'
p657
I690
sS'come'
p658
I691
sS'31e'
p659
I692
sS'31d'
p660
I693
sS'suggested'
p661
I694
sS'31k'
p662
I695
sS'c'
I696
sS'demodify'
p663
I697
sS'33k'
p664
I440
sS'tablet'
p665
I862
sS'nill'
p666
I700
sS'many'
p667
I531
sS'taking'
p668
I702
sS'comment'
p669
I845
sS'flipped'
p670
I703
sS's'
I704
sS'became'
p671
I705
sS'credt'
p672
I1078
sS'dated'
p673
I706
sS'scrathed'
p674
I707
sS'intermiten'
p675
I545
sS'com'
p676
I709
sS'load'
p677
I710
sS'and'
p678
I711
sS'lev'
p679
I712
sS'passenger'
p680
I1062
sS'color'
p681
I713
sS'16e'
p682
I714
sS'16f'
p683
I715
sS'16b'
p684
I716
sS'63a'
p685
I717
sS'62'
p686
I718
sS'37k'
p687
I719
sS'63d'
p688
I720
sS'46h'
p689
I721
sS'46k'
p690
I722
sS'unsuccessful'
p691
I723
sS'7c'
p692
I724
sS'46g'
p693
I725
sS'46a'
p694
I726
sS'46b'
p695
I728
sS'cycling'
p696
I729
sS'pin'
p697
I1065
sS'deep'
p698
I1071
sS'00'
p699
I731
sS'encryption'
p700
I732
sS'due'
p701
I733
sS'fastenedzero'
p702
I734
sS'push'
p703
I1133
sS'pa'
p704
I736
sS'39bseat'
p705
I509
sS'maintenance'
p706
I738
sS'offshelf'
p707
I504
sS'sbs'
p708
I687
sS'handset'
p709
I743
sS'4'
I871
sS'25k'
p710
I261
sS'flight'
p711
I747
sS'6e'
p712
I748
sS'6f'
p713
I749
sS'25b'
p714
I750
sS'turned'
p715
I751
sS'25a'
p716
I752
sS'stocklong'
p717
I753
sS'controller'
p718
I754
sS'casing'
p719
I755
sS'external'
p720
I756
sS'func'
p721
I757
sS'demand'
p722
I758
sS'57b'
p723
I10
sS'57g'
p724
I760
sS'5g'
p725
I874
sS'57e'
p726
I762
sS'57d'
p727
I763
sS'sound'
p728
I33
sS'main'
p729
I766
sS'50j'
p730
I767
sS'frozen'
p731
I768
sS'operational'
p732
I598
sS'mount'
p733
I769
sS'50a'
p734
I78
sS'will'
p735
I771
sS'fter'
p736
I773
sS'replaced'
p737
I774
sS'5c'
p738
I877
sS'fault'
p739
I701
sS'pictures'
p740
I662
sS'cracked'
p741
I777
sS'guide'
p742
I778
sS'vod'
p743
I779
sS'va'
p744
I780
sS'would'
p745
I971
sS'cont'
p746
I781
sS'd2'
p747
I782
sS'then'
p748
I783
sS'svud'
p749
I784
sS'ip'
p750
I785
sS'is'
p751
I786
sS'distorted'
p752
I514
sS'it'
p753
I788
sS'cant'
p754
I184
sS'brake'
p755
I790
sS'numbe'
p756
I791
sS'in'
p757
I792
sS'ready'
p758
I793
sS'ph2'
p759
I794
sS'mod'
p760
I897
sS'seattle'
p761
I795
sS'conn'
p762
I796
sS'if'
p763
I797
sS'acccept'
p764
I798
sS'damaged'
p765
I799
sS'20j'
p766
I800
sS'3ea'
p767
I188
sS'23k'
p768
I379
sS'pax'
p769
I801
sS'media'
p770
I802
sS'cross'
p771
I317
sS'same'
p772
I804
sS'clearly'
p773
I805
sS'periviously'
p774
I806
sS'44107'
p775
I807
sS'hoursmonitored'
p776
I808
sS'presb'
p777
I884
sS'modification'
p778
I811
sS'android'
p779
I812
sS'28e'
p780
I920
sS'higher'
p781
I814
sS'status'
p782
I815
sS'used'
p783
I816
sS'ng'
p784
I1094
sS'nil'
p785
I817
sS'reporting'
p786
I818
sS'upon'
p787
I819
sS'marking'
p788
I1084
sS'rev01if'
p789
I415
sS'wpn'
p790
I822
sS'abnml'
p791
I787
sS'internal'
p792
I869
sS'discoloration'
p793
I824
sS'pull'
p794
I1048
sS'dark'
p795
I886
sS'lower'
p796
I827
sS'unk'
p797
I708
sS'off'
p798
I340
sS'intermittent'
p799
I830
sS'inoperativeno'
p800
I831
sS'tasb'
p801
I832
sS'failing'
p802
I833
sS'lcd'
p803
I887
sS'ccr'
p804
I177
sS'de'
p805
I836
sS'without'
p806
I36
sS'solve'
p807
I838
sS'communications'
p808
I909
sS'y'
I840
sS'entry'
p809
I841
sS'the'
p810
I842
sS'343c'
p811
I552
sS'attrition'
p812
I1007
sS'left'
p813
I844
sS'satis'
p814
I573
sS'r03'
p815
I846
sS'bottom'
p816
I1107
sS'powering'
p817
I848
sS'26d'
p818
I849
sS'when'
p819
I1091
sS'front'
p820
I852
sS'442420'
p821
I853
sS'seats'
p822
I650
sS'touch'
p823
I855
sS'glue'
p824
I856
sS'unplugged'
p825
I857
sS'53g'
p826
I858
sS'detach'
p827
I746
sS'v2012'
p828
I494
sS'vid'
p829
I464
sS'53a'
p830
I699
sS'svdus'
p831
I863
sS'had'
p832
I549
sS'easa'
p833
I865
sS'53h'
p834
I866
sS'16d'
p835
I727
sS'add'
p836
I868
sS'n'
I770
sS'hing'
p837
I870
sS'5h'
p838
I744
sS'crack'
p839
I872
sS'displaued'
p840
I873
sS'elp'
p841
I761
sS'has'
p842
I875
sS'5a'
p843
I876
sS'match'
p844
I775
sS'scdu'
p845
I980
sS'real'
p846
I878
sS'40g'
p847
I879
sS'anouncement'
p848
I96
sS'flashing'
p849
I881
sS'ops'
p850
I882
sS'read'
p851
I883
sS'big'
p852
I810
sS'showing'
p853
I885
sS'21f'
p854
I826
sS'21d'
p855
I834
sS'21e'
p856
I888
sS'reads'
p857
I789
sS'pop'
p858
I890
sS'background'
p859
I735
sS'21a'
p860
I892
sS'installed'
p861
I621
sS'59'
p862
I424
sS'opn'
p863
I894
sS'21j'
p864
I895
sS'rear'
p865
I896
sS'53k'
p866
I864
sS'vdu'
p867
I280
sS'lost'
p868
I899
sS'28a'
p869
I487
sS'modication'
p870
I901
sS'28c'
p871
I902
sS'28b'
p872
I903
sS'pinwheels'
p873
I429
sS'28d'
p874
I905
sS'28g'
p875
I906
sS'28f'
p876
I907
sS'intermittently'
p877
I594
sS'55'
p878
I900
sS'revisionof'
p879
I910
sS'frozenreset'
p880
I911
sS't'
I912
sS'flickering'
p881
I913
sS'inter'
p882
I416
sS'soft'
p883
I216
sS'trying'
p884
I1044
sS'replacement'
p885
I916
sS'creen'
p886
I917
sS'unable'
p887
I667
sS'functional'
p888
I1000
sS'jan'
p889
I919
sS'40k'
p890
I482
sS'46j'
p891
I921
sS'back'
p892
I922
sS'dead'
p893
I923
sS'40j'
p894
I566
sS'certain'
p895
I739
sS'vsb'
p896
I926
sS'repeat'
p897
I1104
sS'auhn'
p898
I927
sS'47e'
p899
I928
sS'loaded'
p900
I929
sS'home'
p901
I930
sS'30b'
p902
I931
sS'30f'
p903
I932
sS'30g'
p904
I933
sS'was'
p905
I1025
sS'maintenan'
p906
I908
sS'icn'
p907
I935
sS'for'
p908
I936
sS'downloadunreachable'
p909
I526
sS'31ac'
p910
I938
sS'per'
p911
I9
sS'prop'
p912
I940
sS'fod'
p913
I16
sS'does'
p914
I942
sS'screenblack'
p915
I943
sS'foc'
p916
I944
sS'eso'
p917
I945
sS'12j42d8j11j'
p918
I946
sS'reseted'
p919
I947
sS'mode'
p920
I948
sS'cord'
p921
I949
sS'be'
p922
I950
sS'cgk'
p923
I951
sS'pls'
p924
I952
sS'power'
p925
I953
sS'posi'
p926
I954
sS'dropped'
p927
I229
sS'burn'
p928
I107
sS'update'
p929
I1109
sS'broken'
p930
I956
sS'38b'
p931
I957
sS'pinwheeling'
p932
I959
sS'tdr'
p933
I960
sS'nml'
p934
I961
sS'r'
I962
sS'by'
p935
I963
sS'lights'
p936
I964
sS'panel'
p937
I965
sS'plug'
p938
I179
sS'on'
p939
I180
sS'42k'
p940
I968
sS'works'
p941
I914
sS'ok'
p942
I970
sS'socket'
p943
I194
sS'world'
p944
I893
sS'42a'
p945
I973
sS'screeen'
p946
I915
sS'42c'
p947
I975
sS'42b'
p948
I976
sS'oc'
p949
I222
sS'42d'
p950
I978
sS'serviceable'
p951
I979
sS'aal'
p952
I637
sS'cmas'
p953
I981
sS'srv'
p954
I248
sS'waded'
p955
I983
sS'44k58e'
p956
I984
sS'60a'
p957
I1114
sS'idd'
p958
I986
sS'ot'
p959
I987
sS'or'
p960
I989
sS'automatically'
p961
I990
sS'dispaly'
p962
I284
sS'rev03'
p963
I290
sS'rev00'
p964
I993
sS'rev'
p965
I380
sS'22j'
p966
I994
sS'7a28e44a37h'
p967
I995
sS'visit'
p968
I142
sS'image'
p969
I319
sS'22d'
p970
I998
sS'22c'
p971
I999
sS'sdcard'
p972
I329
sS'headphone'
p973
I1001
sS'56h'
p974
I336
sS'phase'
p975
I1003
sS'56j'
p976
I1004
sS'56k'
p977
I458
sS'freeze'
p978
I1006
sS'13498ar00if'
p979
I359
sS'56b'
p980
I371
sS'56d'
p981
I1009
sS'bezel'
p982
I115
sS'56g'
p983
I1011
sS'preservice'
p984
I1012
sS'log'
p985
I839
sS'housing'
p986
I1015
sS'there'
p987
I1016
sS'eso33700'
p988
I745
sS'44020sb'
p989
I1017
sS'avail'
p990
I1018
sS'resetx3'
p991
I813
sS'workshop'
p992
I1020
sS'low'
p993
I1021
sS'way'
p994
I1022
sS'pinwheel'
p995
I1023
sS'armrest'
p996
I550
sS'bubble'
p997
I221
sS'1009'
p998
I1026
sS'42f'
p999
I1027
sS'function'
p1000
I1028
sS'repairiaw'
p1001
I1029
sS'rju'
p1002
I1030
sS'pwr'
p1003
I1031
sS'complete'
p1004
I1032
sS'fpga'
p1005
I1033
sS'attempted'
p1006
I1034
sS'31g'
p1007
I1035
sS'but'
p1008
I1036
sS'53b'
p1009
I861
sS'change'
p1010
I737
sS'shroud'
p1011
I555
sS'properly'
p1012
I1039
sS'24k'
p1013
I1040
sS'795'
p1014
I847
sS'e'
I1123
sS'line'
p1015
I1043
sS'removed'
p1016
I558
sS'with'
p1017
I1045
sS'ph'
p1018
I741
sS'wazy'
p1019
I606
sS'info'
p1020
I431
sS'no41g41h28g'
p1021
I904
sS'responding'
p1022
I1049
sS'distored'
p1023
I1050
sS'improved'
p1024
I698
sS'cid'
p1025
I1051
sS'inside'
p1026
I1052
sS'up'
p1027
I1053
sS'us'
p1028
I1054
sS'moive'
p1029
I1055
sS'ware'
p1030
I389
sS'customers'
p1031
I880
sS'dirty'
p1032
I1056
sS'faded'
p1033
I1057
sS'static'
p1034
I365
sS'problem'
p1035
I1059
sS'display'
p1036
I1060
sS'intermitently'
p1037
I1061
sS'our'
p1038
I1076
sS'separated'
p1039
I925
sS'required'
p1040
I1126
sS'discolored'
p1041
I1063
sS'48j'
p1042
I1064
sS'fco'
p1043
I1024
sS'48h'
p1044
I1066
sS'cover'
p1045
I560
sS'tpmu'
p1046
I53
sS'pic'
p1047
I1069
sS'48c'
p1048
I376
sS'48a'
p1049
I730
sS'an'
p1050
I1072
sS'as'
p1051
I1073
sS'right'
p1052
I918
sS'at'
p1053
I1074
sS'interacine'
p1054
I1075
sS'30a'
p1055
I988
sS'pip'
p1056
I1077
sS'currentrevision'
p1057
I617
sS'face'
p1058
I972
sS'operation'
p1059
I369
sS'sb18077144007'
p1060
I1081
sS'incorrect'
p1061
I1082
sS'47c'
p1062
I1083
sS'functions'
p1063
I820
sS'foundmessg'
p1064
I825
sS'47d'
p1065
I1086
sS'calibration'
p1066
I611
sS'47j'
p1067
I1088
sS'47'
p1068
I1089
sS'1k'
p1069
I481
sS'relax'
p1070
I1090
sS'boot'
p1071
I850
sS'seatback'
p1072
I1130
sS'invalid'
p1073
I1093
sS'plugged'
p1074
I497
sS'started'
p1075
I1095
sS'bracket'
p1076
I565
sS'5'
I1096
sS'test'
p1077
I1097
sS'additional'
p1078
I1013
sS'e36292'
p1079
I1099
sS'noresponse'
p1080
I1100
sS'revision'
p1081
I1101
sS'monitors'
p1082
I1102
sS'picture'
p1083
I1103
sS'inscpect'
p1084
I268
sS'pinwheelsplease'
p1085
I1105
sS'provided'
p1086
I934
sS'sdxc'
p1087
I1108
sS'm'
I615
sS'dented'
p1088
I1110
sS'stay'
p1089
I1111
sS'loading'
p1090
I859
sS'fell'
p1091
I1113
sS'15e'
p1092
I985
sS'15d'
p1093
I1115
sS'15g'
p1094
I1116
sS'15f'
p1095
I1117
sS'faultblue'
p1096
I1106
sS'15k'
p1097
I1118
sS'scratchy'
p1098
I1119
sS'unless'
p1099
I1120
sS'4d'
p1100
I1135
sS'unresponsive'
p1101
I1121
sS'your'
p1102
I1010
sS'requirementrev'
p1103
I1122
sS'remote'
p1104
I1042
sS'21072986'
p1105
I1124
sS'hellicoil'
p1106
I1125
sS'rs'
p1107
I1092
sS'locate'
p1108
I1127
sS'sva'
p1109
I1128
sS'seat'
p1110
I653
sS'filed'
p1111
I1041
sS'inser'
p1112
I1098
sS'time'
p1113
I1132
sS'recognize'
p1114
I1067
sS'respnding'
p1115
I1134
sS'applied'
p1116
I1112
sS'4a'
p1117
I1136
sS'rev00if'
p1118
I958
s.(lp1
S'all'
p2
aS'dsu'
p3
aS'cauiton'
p4
aS'edd'
p5
aS'scratch'
p6
aS'iamge'
p7
aS'refcma'
p8
aS'code'
p9
aS'mnl'
p10
aS'per'
p11
aS'57b'
p12
aS'go'
p13
aS'displaying'
p14
aS'predeparture'
p15
aS'causes'
p16
aS'lace'
p17
aS'fod'
p18
aS'hold'
p19
aS'29j'
p20
aS'29k'
p21
aS'tv'
p22
aS'auh'
p23
aS'29d'
p24
aS'29b'
p25
aS'29c'
p26
aS'removal'
p27
aS'to'
p28
aS'58b'
p29
aS'program'
p30
aS'swap'
p31
aS'under'
p32
aS'spillage'
p33
aS'faols'
p34
aS'sound'
p35
aS'downloading'
p36
aS'sbplease'
p37
aS'without'
p38
aS'lru'
p39
aS'jack'
p40
aS'stays'
p41
aS'blanked'
p42
aS'3c'
p43
aS'wontt'
p44
aS'condition'
p45
aS'entire'
p46
aS'cmm'
p47
aS'cml'
p48
aS'442503'
p49
aS'cable'
p50
aS'level'
p51
aS'did'
p52
aS'ref'
p53
aS'button'
p54
aS'tpmu'
p55
aS'p'
aS'thales'
p56
aS'small'
p57
aS'movie'
p58
aS'loads'
p59
aS'inspection'
p60
aS'upper'
p61
aS'says'
p62
aS'44012sb'
p63
aS'39b'
p64
aS'10c'
p65
aS'repetitive'
p66
aS'10f'
p67
aS'request'
p68
aS'sign'
p69
aS'thecurrent'
p70
aS'zero'
p71
aS'44h'
p72
aS'video'
p73
aS'displays'
p74
aS'baseiction'
p75
aS'download'
p76
aS'sb18077344006'
p77
aS'45k'
p78
aS'50a'
p79
aS'port'
p80
aS'even'
p81
aS'headset'
p82
aS'turn'
p83
aS'43j'
p84
aS'unavailable'
p85
aS'64f'
p86
aS'giving'
p87
aS'43g'
p88
aS'43b'
p89
aS'no28e'
p90
aS'no28f'
p91
aS'43a'
p92
aS'current'
p93
aS'39k'
p94
aS'waiting'
p95
aS'3h'
p96
aS'anouncement'
p97
aS'goes'
p98
aS'screeudio'
p99
aS'3b'
p100
aS'3a'
p101
aS'trdr'
p102
aS'3f'
p103
aS'funtion'
p104
aS'3d'
p105
aS'slot'
p106
aS'33b'
p107
aS'burn'
p108
aS'18077344004'
p109
aS'loose'
p110
aS'modify'
p111
aS'hkt'
p112
aS'18077344002'
p113
aS'hours'
p114
aS'reported'
p115
aS'bezel'
p116
aS'41g'
p117
aS'59e'
p118
aS'59d'
p119
aS'v0904797'
p120
aS'address'
p121
aS'19e'
p122
aS'59h'
p123
aS'59k'
p124
aS'19f'
p125
aS'55a'
p126
aS'19c'
p127
aS'wait'
p128
aS'heatsink'
p129
aS'52a'
p130
aS'52b'
p131
aS'52c'
p132
aS'inoperable'
p133
aS'52h'
p134
aS'completely'
p135
aS'reports'
p136
aS'18k'
p137
aS'liwuid'
p138
aS'credit'
p139
aS'accomplished'
p140
aS'abnormally'
p141
aS'action'
p142
aS'visit'
p143
aS'thats'
p144
aS'campaign'
p145
aS'apr'
p146
aS'41h'
p147
aS'transit'
p148
aS'cosmetic'
p149
aS'replace'
p150
aS'screens'
p151
aS'flt'
p152
aS'resets'
p153
aS'29a'
p154
aS'unit'
p155
aS'corrupted'
p156
aS'buttons'
p157
aS'use'
p158
aS'from'
p159
aS'pwer'
p160
aS'working'
p161
aS'chk'
p162
aS'avodinop'
p163
aS'two'
p164
aS'reprot'
p165
aS'next'
p166
aS'connector'
p167
aS'few'
p168
aS'displayin'
p169
aS'splash'
p170
aS'sw'
p171
aS'therefore'
p172
aS'msg'
p173
aS'tounch'
p174
aS'msd'
p175
aS'until'
p176
aS'minor'
p177
aS'ccr'
p178
aS'scratched'
p179
aS'plug'
p180
aS'on'
p181
aS'stucked'
p182
aS'stable'
p183
aS'10e'
p184
aS'cant'
p185
aS'tested'
p186
aS'functionalcheck'
p187
aS'fixed'
p188
aS'3ea'
p189
aS'scratches'
p190
aS'mounted'
p191
aS'33a'
p192
aS'store'
p193
aS'uservice'
p194
aS'socket'
p195
aS'fly'
p196
aS'none'
p197
aS'thread'
p198
aS'hour'
p199
aS'ecodistorded'
p200
aS'deformed'
p201
aS'car'
p202
aS'der'
p203
aS'work'
p204
aS'this'
p205
aS'modified'
p206
aS'worn'
p207
aS'movies'
p208
aS'can'
p209
aS'following'
p210
aS'detached'
p211
aS'trans'
p212
aS'didnt'
p213
aS'foundmessage'
p214
aS'deg'
p215
aS'control'
p216
aS'soft'
p217
aS'51e'
p218
aS'earphone'
p219
aS'bent'
p220
aS'indicated'
p221
aS'bubble'
p222
aS'oc'
p223
aS'orimproved'
p224
aS'accept'
p225
aS'aaleso'
p226
aS'61j'
p227
aS'62d'
p228
aS'chin'
p229
aS'dropped'
p230
aS'61b'
p231
aS'serial'
p232
aS'61a'
p233
aS'61f'
p234
aS'61g'
p235
aS'61d'
p236
aS'ofthe'
p237
aS'needs'
p238
aS'faulta'
p239
aS'defective'
p240
aS'eng'
p241
aS'24a'
p242
aS'damage'
p243
aS'freezes'
p244
aS'1'
aS'62599900544016r03'
p245
aS'29f'
p246
aS'pins'
p247
aS'srv'
p248
aS'config'
p249
aS'sim'
p250
aS'stock'
p251
aS'blacked'
p252
aS'blanks'
p253
aS'tried'
p254
aS'45e'
p255
aS'communicating'
p256
aS'23d'
p257
aS'freezing'
p258
aS'after'
p259
aS'23a'
p260
aS'25k'
p261
aS'bkk'
p262
aS'18c'
p263
aS'blankinoperative'
p264
aS'55k'
p265
aS'date'
p266
aS'55d'
p267
aS'inscpect'
p268
aS'mesg'
p269
aS'response'
p270
aS'mao'
p271
aS'man'
p272
aS'a'
aS'purchase'
p273
aS'threadsvdu'
p274
aS'functuion'
p275
aS'light'
p276
aS'lines'
p277
aS'44015sb'
p278
aS'vdu'
p279
aS'upside'
p280
aS'keeps'
p281
aS'sb'
p282
aS'dispaly'
p283
aS'31008185'
p284
aS'playing'
p285
aS'sd'
p286
aS'help'
p287
aS'comms'
p288
aS'rev03'
p289
aS'over'
p290
aS'move'
p291
aS'displayed'
p292
aS'distortion'
p293
aS'through'
p294
aS'unavail'
p295
aS'58k'
p296
aS'responsive'
p297
aS'ffe'
p298
aS'still'
p299
aS'sb62599900544016'
p300
aS'operative'
p301
aS'blocked'
p302
aS'messed'
p303
aS'mod2'
p304
aS'du'
p305
aS'monitor'
p306
aS'fit'
p307
aS'tsi'
p308
aS'fix'
p309
aS'29'
p310
aS'exhibits'
p311
aS'pcu'
p312
aS'symptoms'
p313
aS'detected'
p314
aS'nh0085594'
p315
aS'cross'
p316
aS'2016'
p317
aS'image'
p318
aS'wouldn'
p319
aS'non'
p320
aS'49h'
p321
aS'49j'
p322
aS'dac'
p323
aS'49d'
p324
aS'49e'
p325
aS'49g'
p326
aS'49a'
p327
aS'sdcard'
p328
aS'flicher'
p329
aS'not'
p330
aS'1b'
p331
aS'one'
p332
aS'nop'
p333
aS'wont'
p334
aS'56h'
p335
aS'40e'
p336
aS'workload'
p337
aS'offline'
p338
aS'off'
p339
aS'drop'
p340
aS'2x'
p341
aS'identified'
p342
aS'ng0365412'
p343
aS'ife'
p344
aS'aftwe'
p345
aS'2g'
p346
aS'l2'
p347
aS'ecrs'
p348
aS'l1'
p349
aS'found'
p350
aS'went'
p351
aS'sil'
p352
aS'repaired'
p353
aS'gui'
p354
aS'2k'
p355
aS'24e'
p356
aS'malfunction'
p357
aS'13498ar00if'
p358
aS'24h'
p359
aS'related'
p360
aS'inverted'
p361
aS'58d'
p362
aS'unserviceable'
p363
aS'static'
p364
aS'remove'
p365
aS'58a'
p366
aS'mds'
p367
aS'operation'
p368
aS'58j'
p369
aS'56b'
p370
aS'out'
p371
aS'shown'
p372
aS'51j'
p373
aS'network'
p374
aS'48c'
p375
aS'entertainment'
p376
aS'rep'
p377
aS'23k'
p378
aS'rev'
p379
aS'reboot'
p380
aS'56e'
p381
aS'content'
p382
aS're'
p383
aS'44056'
p384
aS'cwl'
p385
aS'shipment'
p386
aS'reader'
p387
aS'ware'
p388
aS'rea'
p389
aS'issue'
p390
aS'red'
p391
aS'shows'
p392
aS'sb18077344002'
p393
aS'toucscreen'
p394
aS'8h'
p395
aS'inop'
p396
aS'ecb'
p397
aS'sb18077344004'
p398
aS'eco'
p399
aS'hull'
p400
aS'booting'
p401
aS'n449514'
p402
aS'62599900544010'
p403
aS'imafe'
p404
aS'reason'
p405
aS'base'
p406
aS'socil'
p407
aS'upsidedow'
p408
aS'39a'
p409
aS'checked'
p410
aS'inopblankback'
p411
aS'card'
p412
aS'md5'
p413
aS'rev01if'
p414
aS'inter'
p415
aS'androidscreen'
p416
aS'18077403'
p417
aS'g'
aS'sceen'
p418
aS'stucks'
p419
aS'could'
p420
aS'times'
p421
aS'59'
p422
aS'place'
p423
aS'w'
aS'nrc2015b6538001200161g'
p424
aS'vservice'
p425
aS'pinwheels'
p426
aS'waitentertainment'
p427
aS'info'
p428
aS'dont'
p429
aS'number'
p430
aS'i5000'
p431
aS'43k'
p432
aS'spinning'
p433
aS'done'
p434
aS'blank'
p435
aS'message'
p436
aS'33k'
p437
aS'bonney'
p438
aS'certainsb'
p439
aS'little'
p440
aS'62599900544016'
p441
aS'service'
p442
aS'13498ar00'
p443
aS'unknown'
p444
aS'swipe'
p445
aS'traveller'
p446
aS'system'
p447
aS'hangs'
p448
aS'tou'
p449
aS'1a'
p450
aS'1c'
p451
aS'2'
aS'1d'
p452
aS'1g'
p453
aS'56k'
p454
aS'1h'
p455
aS'iaw'
p456
aS'1j'
p457
aS'recovered'
p458
aS'gives'
p459
aS'vid'
p460
aS's100112'
p461
aS'jed'
p462
aS'servo'
p463
aS'that'
p464
aS'shelf'
p465
aS'completed'
p466
aS'17c'
p467
aS'j1'
p468
aS'45h'
p469
aS'45j'
p470
aS'part'
p471
aS'pnl'
p472
aS'unreachable'
p473
aS'shortly'
p474
aS'blurred'
p475
aS'45d'
p476
aS'1k'
p477
aS'40k'
p478
aS'45g'
p479
aS'sbkk'
p480
aS'12'
p481
aS'18f'
p482
aS'28a'
p483
aS'showed'
p484
aS'accordance'
p485
aS'19'
p486
aS'18'
p487
aS'couldn'
p488
aS'scracthes'
p489
aS'v2012'
p490
aS'discolor'
p491
aS'2touchscreen'
p492
aS'plugged'
p493
aS'embody'
p494
aS'flashes'
p495
aS'interactive'
p496
aS'pre'
p497
aS'retreive'
p498
aS'7a'
p499
aS'offshelf'
p500
aS'svdu'
p501
aS'7k'
p502
aS'defect'
p503
aS'7h'
p504
aS'39bseat'
p505
aS'fail'
p506
aS'20c'
p507
aS'20b'
p508
aS'20e'
p509
aS'distorted'
p510
aS'need'
p511
aS'20k'
p512
aS'null'
p513
aS'any'
p514
aS'rax'
p515
aS'screw'
p516
aS'functioning'
p517
aS'inspections'
p518
aS'upgrading'
p519
aS'note'
p520
aS'edge'
p521
aS'downloadunreachable'
p522
aS'take'
p523
aS'which'
p524
aS'dmfthan'
p525
aS'new'
p526
aS'many'
p527
aS'blue'
p528
aS'play'
p529
aS'doig'
p530
aS'multiple'
p531
aS'normal'
p532
aS'44j'
p533
aS'quote'
p534
aS'object'
p535
aS'inerted'
p536
aS'phases'
p537
aS'kal'
p538
aS'75'
p539
aS'detect'
p540
aS'intermiten'
p541
aS'services'
p542
aS'41a'
p543
aS'inserted'
p544
aS'had'
p545
aS'armrest'
p546
aS'fualt'
p547
aS'343c'
p548
aS'32g'
p549
aS'39h'
p550
aS'shroud'
p551
aS'32j'
p552
aS'doc'
p553
aS'removed'
p554
aS'sometimes'
p555
aS'cover'
p556
aS'offlineno'
p557
aS'32l'
p558
aS'wwid'
p559
aS'continusly'
p560
aS'bracket'
p561
aS'40j'
p562
aS'64h'
p563
aS'bulletin'
p564
aS'imageturn'
p565
aS'shop'
p566
aS'currently'
p567
aS'ng0019114'
p568
aS'satis'
p569
aS'no28d'
p570
aS'flicker'
p571
aS'maint'
p572
aS'43c'
p573
aS'connect'
p574
aS'e332933'
p575
aS'colors'
p576
aS'planning'
p577
aS'99a'
p578
aS'fuzzy'
p579
aS'corner'
p580
aS'fine'
p581
aS'find'
p582
aS'41d'
p583
aS'3k'
p584
aS'upgrade'
p585
aS'installation'
p586
aS'failes'
p587
aS'41c'
p588
aS'menu'
p589
aS'intermittently'
p590
aS'rebooting'
p591
aS'screenunable'
p592
aS'41j'
p593
aS'operational'
p594
aS'bfs'
p595
aS'failed'
p596
aS'only'
p597
aS'won'
p598
aS'black'
p599
aS'incryption'
p600
aS'blace'
p601
aS'wazy'
p602
aS'do'
p603
aS'touchscreen'
p604
aS'displa'
p605
aS'bend'
p606
aS'calibration'
p607
aS'inoperative'
p608
aS'stop'
p609
aS'blinking'
p610
aS'm'
aS'enycryction'
p611
aS'currentrevision'
p612
aS'report'
p613
aS'during'
p614
aS'awaiting'
p615
aS'installed'
p616
aS'recertification'
p617
aS'restart'
p618
aS'disply'
p619
aS'54b'
p620
aS'54c'
p621
aS'bar'
p622
aS'54g'
p623
aS'54j'
p624
aS'h'
aS'distorded'
p625
aS'pixelation'
p626
aS'screennot'
p627
aS'communicationss'
p628
aS'twice'
p629
aS'bad'
p630
aS'aal'
p631
aS'release'
p632
aS'x'
aS'wheeling'
p633
aS'respond'
p634
aS'requirement'
p635
aS'set'
p636
aS'38d'
p637
aS'ser'
p638
aS'seq'
p639
aS'unservible'
p640
aS'38h'
p641
aS'frame'
p642
aS'seats'
p643
aS'oma'
p644
aS'module'
p645
aS'seat'
p646
aS'r00'
p647
aS'are'
p648
aS'sea'
p649
aS'corrupt'
p650
aS'03'
p651
aS'fails'
p652
aS'01'
p653
aS'repiar'
p654
aS'pictures'
p655
aS'08'
p656
aS'opening'
p657
aS'please'
p658
aS'3'
aS'unable'
p659
aS'correctly'
p660
aS'between'
p661
aS'progress'
p662
aS'reading'
p663
aS'across'
p664
aS'18d'
p665
aS'side'
p666
aS'available'
p667
aS'notice'
p668
aS'18077344006'
p669
aS'missing'
p670
aS'screen'
p671
aS'jedman'
p672
aS'42jk'
p673
aS'avod'
p674
aS'cards'
p675
aS'aircraft'
p676
aS'31h'
p677
aS'comm'
p678
aS'sbs'
p679
aS'31c'
p680
aS'approval'
p681
aS'31a'
p682
aS'come'
p683
aS'31e'
p684
aS'31d'
p685
aS'suggested'
p686
aS'31k'
p687
aS'c'
aS'demodify'
p688
aS'improved'
p689
aS'53a'
p690
aS'nill'
p691
aS'fault'
p692
aS'taking'
p693
aS'flipped'
p694
aS's'
aS'became'
p695
aS'dated'
p696
aS'scrathed'
p697
aS'unk'
p698
aS'com'
p699
aS'load'
p700
aS'and'
p701
aS'lev'
p702
aS'color'
p703
aS'16e'
p704
aS'16f'
p705
aS'16b'
p706
aS'63a'
p707
aS'62'
p708
aS'37k'
p709
aS'63d'
p710
aS'46h'
p711
aS'46k'
p712
aS'unsuccessful'
p713
aS'7c'
p714
aS'46g'
p715
aS'46a'
p716
aS'16d'
p717
aS'46b'
p718
aS'cycling'
p719
aS'48a'
p720
aS'00'
p721
aS'encryption'
p722
aS'due'
p723
aS'fastenedzero'
p724
aS'background'
p725
aS'pa'
p726
aS'change'
p727
aS'maintenance'
p728
aS'certain'
p729
aS'2010'
p730
aS'ph'
p731
aS'cma'
p732
aS'handset'
p733
aS'5h'
p734
aS'eso33700'
p735
aS'detach'
p736
aS'flight'
p737
aS'6e'
p738
aS'6f'
p739
aS'25b'
p740
aS'turned'
p741
aS'25a'
p742
aS'stocklong'
p743
aS'controller'
p744
aS'casing'
p745
aS'external'
p746
aS'func'
p747
aS'demand'
p748
aS'hme'
p749
aS'57g'
p750
aS'elp'
p751
aS'57e'
p752
aS'57d'
p753
aS'case'
p754
aS'20a'
p755
aS'main'
p756
aS'50j'
p757
aS'frozen'
p758
aS'mount'
p759
aS'n'
aS'will'
p760
aS'helicoil'
p761
aS'fter'
p762
aS'replaced'
p763
aS'match'
p764
aS'error'
p765
aS'cracked'
p766
aS'guide'
p767
aS'vod'
p768
aS'va'
p769
aS'cont'
p770
aS'd2'
p771
aS'then'
p772
aS'svud'
p773
aS'ip'
p774
aS'is'
p775
aS'abnml'
p776
aS'it'
p777
aS'reads'
p778
aS'brake'
p779
aS'numbe'
p780
aS'in'
p781
aS'ready'
p782
aS'ph2'
p783
aS'seattle'
p784
aS'conn'
p785
aS'if'
p786
aS'acccept'
p787
aS'damaged'
p788
aS'20j'
p789
aS'pax'
p790
aS'media'
p791
aS'connection'
p792
aS'same'
p793
aS'clearly'
p794
aS'periviously'
p795
aS'44107'
p796
aS'hoursmonitored'
p797
aS's100112vdu'
p798
aS'big'
p799
aS'modification'
p800
aS'android'
p801
aS'resetx3'
p802
aS'higher'
p803
aS'status'
p804
aS'used'
p805
aS'nil'
p806
aS'reporting'
p807
aS'upon'
p808
aS'functions'
p809
aS'sys'
p810
aS'wpn'
p811
aS'49c'
p812
aS'discoloration'
p813
aS'foundmessg'
p814
aS'21f'
p815
aS'lower'
p816
aS'elec'
p817
aS'ashley'
p818
aS'intermittent'
p819
aS'inoperativeno'
p820
aS'tasb'
p821
aS'failing'
p822
aS'21d'
p823
aS'tasg'
p824
aS'de'
p825
aS'contact'
p826
aS'solve'
p827
aS'log'
p828
aS'y'
aS'entry'
p829
aS'the'
p830
aS'audio'
p831
aS'left'
p832
aS'comment'
p833
aS'r03'
p834
aS'795'
p835
aS'powering'
p836
aS'26d'
p837
aS'boot'
p838
aS'2c'
p839
aS'front'
p840
aS'442420'
p841
aS'reapir'
p842
aS'touch'
p843
aS'glue'
p844
aS'unplugged'
p845
aS'53g'
p846
aS'loading'
p847
aS'53c'
p848
aS'53b'
p849
aS'tablet'
p850
aS'svdus'
p851
aS'53k'
p852
aS'easa'
p853
aS'53h'
p854
aS'cc'
p855
aS'add'
p856
aS'internal'
p857
aS'hing'
p858
aS'4'
aS'crack'
p859
aS'displaued'
p860
aS'5g'
p861
aS'has'
p862
aS'5a'
p863
aS'5c'
p864
aS'real'
p865
aS'40g'
p866
aS'customers'
p867
aS'flashing'
p868
aS'ops'
p869
aS'read'
p870
aS'presb'
p871
aS'showing'
p872
aS'dark'
p873
aS'lcd'
p874
aS'21e'
p875
aS'21b'
p876
aS'pop'
p877
aS'mom'
p878
aS'21a'
p879
aS'world'
p880
aS'opn'
p881
aS'21j'
p882
aS'rear'
p883
aS'mod'
p884
aS'necessary'
p885
aS'lost'
p886
aS'55'
p887
aS'modication'
p888
aS'28c'
p889
aS'28b'
p890
aS'no41g41h28g'
p891
aS'28d'
p892
aS'28g'
p893
aS'28f'
p894
aS'maintenan'
p895
aS'communications'
p896
aS'revisionof'
p897
aS'frozenreset'
p898
aS't'
aS'flickering'
p899
aS'works'
p900
aS'screeen'
p901
aS'replacement'
p902
aS'creen'
p903
aS'right'
p904
aS'jan'
p905
aS'28e'
p906
aS'46j'
p907
aS'back'
p908
aS'dead'
p909
aS'transaction'
p910
aS'separated'
p911
aS'vsb'
p912
aS'auhn'
p913
aS'47e'
p914
aS'loaded'
p915
aS'home'
p916
aS'30b'
p917
aS'30f'
p918
aS'30g'
p919
aS'provided'
p920
aS'icn'
p921
aS'for'
p922
aS'micro'
p923
aS'31ac'
p924
aS'theaal'
p925
aS'prop'
p926
aS'144027'
p927
aS'does'
p928
aS'screenblack'
p929
aS'foc'
p930
aS'eso'
p931
aS'12j42d8j11j'
p932
aS'reseted'
p933
aS'mode'
p934
aS'cord'
p935
aS'be'
p936
aS'cgk'
p937
aS'pls'
p938
aS'power'
p939
aS'posi'
p940
aS'inspect'
p941
aS'broken'
p942
aS'38b'
p943
aS'rev00if'
p944
aS'pinwheeling'
p945
aS'tdr'
p946
aS'nml'
p947
aS'r'
aS'by'
p948
aS'lights'
p949
aS'panel'
p950
aS'acc'
p951
aS'42h'
p952
aS'42k'
p953
aS'42j'
p954
aS'ok'
p955
aS'would'
p956
aS'face'
p957
aS'42a'
p958
aS'of'
p959
aS'42c'
p960
aS'42b'
p961
aS'42e'
p962
aS'42d'
p963
aS'serviceable'
p964
aS'scdu'
p965
aS'cmas'
p966
aS'plus'
p967
aS'waded'
p968
aS'44k58e'
p969
aS'15e'
p970
aS'idd'
p971
aS'ot'
p972
aS'30a'
p973
aS'or'
p974
aS'automatically'
p975
aS'software'
p976
aS'repair'
p977
aS'rev00'
p978
aS'22j'
p979
aS'7a28e44a37h'
p980
aS'communication'
p981
aS'into'
p982
aS'22d'
p983
aS'22c'
p984
aS'functional'
p985
aS'headphone'
p986
aS'down'
p987
aS'phase'
p988
aS'56j'
p989
aS'doesnt'
p990
aS'freeze'
p991
aS'attrition'
p992
aS'couldnt'
p993
aS'56d'
p994
aS'your'
p995
aS'56g'
p996
aS'preservice'
p997
aS'additional'
p998
aS'44010'
p999
aS'housing'
p1000
aS'there'
p1001
aS'44020sb'
p1002
aS'avail'
p1003
aS'stuck'
p1004
aS'workshop'
p1005
aS'low'
p1006
aS'way'
p1007
aS'pinwheel'
p1008
aS'fco'
p1009
aS'was'
p1010
aS'1009'
p1011
aS'42f'
p1012
aS'function'
p1013
aS'repairiaw'
p1014
aS'rju'
p1015
aS'pwr'
p1016
aS'complete'
p1017
aS'fpga'
p1018
aS'attempted'
p1019
aS'31g'
p1020
aS'but'
p1021
aS'volume'
p1022
aS'failure'
p1023
aS'properly'
p1024
aS'24k'
p1025
aS'filed'
p1026
aS'remote'
p1027
aS'line'
p1028
aS'trying'
p1029
aS'with'
p1030
aS'flickers'
p1031
aS'reset'
p1032
aS'pull'
p1033
aS'responding'
p1034
aS'distored'
p1035
aS'cid'
p1036
aS'inside'
p1037
aS'up'
p1038
aS'us'
p1039
aS'moive'
p1040
aS'dirty'
p1041
aS'faded'
p1042
aS'removaltouch'
p1043
aS'problem'
p1044
aS'display'
p1045
aS'intermitently'
p1046
aS'passenger'
p1047
aS'discolored'
p1048
aS'48j'
p1049
aS'pin'
p1050
aS'48h'
p1051
aS'recognize'
p1052
aS'48e'
p1053
aS'pic'
p1054
aS'cbn'
p1055
aS'deep'
p1056
aS'an'
p1057
aS'as'
p1058
aS'at'
p1059
aS'interacine'
p1060
aS'our'
p1061
aS'pip'
p1062
aS'credt'
p1063
aS'doe'
p1064
aS'check'
p1065
aS'sb18077144007'
p1066
aS'incorrect'
p1067
aS'47c'
p1068
aS'marking'
p1069
aS'47g'
p1070
aS'47d'
p1071
aS'no'
p1072
aS'47j'
p1073
aS'47'
p1074
aS'relax'
p1075
aS'when'
p1076
aS'rs'
p1077
aS'invalid'
p1078
aS'ng'
p1079
aS'started'
p1080
aS'5'
aS'test'
p1081
aS'inser'
p1082
aS'e36292'
p1083
aS'noresponse'
p1084
aS'revision'
p1085
aS'monitors'
p1086
aS'picture'
p1087
aS'repeat'
p1088
aS'pinwheelsplease'
p1089
aS'faultblue'
p1090
aS'bottom'
p1091
aS'sdxc'
p1092
aS'update'
p1093
aS'dented'
p1094
aS'stay'
p1095
aS'applied'
p1096
aS'fell'
p1097
aS'60a'
p1098
aS'15d'
p1099
aS'15g'
p1100
aS'15f'
p1101
aS'15k'
p1102
aS'scratchy'
p1103
aS'unless'
p1104
aS'unresponsive'
p1105
aS'requirementrev'
p1106
aS'e'
aS'21072986'
p1107
aS'hellicoil'
p1108
aS'required'
p1109
aS'locate'
p1110
aS'sva'
p1111
aS'corrputed'
p1112
aS'seatback'
p1113
aS'u'
aS'time'
p1114
aS'push'
p1115
aS'respnding'
p1116
aS'4d'
p1117
aS'4a'
p1118
a.