(dp1
S'all'
p2
I1
sS'code'
p3
I2
sS'consider'
p4
I4
sS'edd'
p5
I5
sS'scratch'
p6
I6
sS'iamge'
p7
I7
sS'demand'
p8
I861
sS'refcma'
p9
I9
sS'inarm'
p10
I10
sS'obstruction'
p11
I11
sS'mnl'
p12
I12
sS'57b'
p13
I863
sS'go'
p14
I13
sS'ptv'
p15
I14
sS'displaying'
p16
I15
sS'predeparture'
p17
I16
sS'causes'
p18
I112
sS'lace'
p19
I18
sS'144027'
p20
I1075
sS'ware'
p21
I20
sS'29j'
p22
I21
sS'29k'
p23
I22
sS'29f'
p24
I24
sS'auh'
p25
I25
sS'29d'
p26
I26
sS'29b'
p27
I27
sS'29c'
p28
I28
sS'29a'
p29
I180
sS'1349ar00'
p30
I30
sS'to'
p31
I31
sS'program'
p32
I32
sS'swap'
p33
I33
sS'stable'
p34
I34
sS'44056'
p35
I434
sS'spillage'
p36
I36
sS'faols'
p37
I37
sS'sent'
p38
I38
sS'case'
p39
I868
sS'mpd'
p40
I40
sS'downloading'
p41
I41
sS'sbplease'
p42
I43
sS'without'
p43
I959
sS'no42d'
p44
I45
sS'4ea'
p45
I46
sS'48e'
p46
I1206
sS'lru'
p47
I48
sS'jack'
p48
I49
sS'stays'
p49
I50
sS'jan'
p50
I1050
sS'blanked'
p51
I51
sS'e510211'
p52
I52
sS'wontt'
p53
I53
sS'condition'
p54
I54
sS'entire'
p55
I55
sS'cmm'
p56
I56
sS'cml'
p57
I57
sS'442503'
p58
I58
sS'cable'
p59
I384
sS'level'
p60
I60
sS'did'
p61
I61
sS'ref'
p62
I440
sS'button'
p63
I63
sS'applicable'
p64
I64
sS'cma'
p65
I65
sS'p'
I66
sS'car'
p66
I232
sS'small'
p67
I70
sS'99a'
p68
I662
sS'inopblankback'
p69
I72
sS'inspection'
p70
I74
sS'deformed'
p71
I75
sS'says'
p72
I76
sS'toucscreen'
p73
I444
sS'10c'
p74
I79
sS'pin'
p75
I1203
sS's100112'
p76
I80
sS'10f'
p77
I81
sS'8h'
p78
I615
sS'10e'
p79
I83
sS'44j'
p80
I84
sS'zero'
p81
I85
sS'44h'
p82
I86
sS'video'
p83
I87
sS'displays'
p84
I88
sS'baseiction'
p85
I89
sS'download'
p86
I90
sS'inop'
p87
I446
sS'functioning'
p88
I587
sS'port'
p89
I93
sS'blue'
p90
I95
sS'neo'
p91
I96
sS'43j'
p92
I97
sS'43k'
p93
I98
sS'64f'
p94
I99
sS'giving'
p95
I100
sS'43g'
p96
I101
sS'no28b'
p97
I102
sS'43b'
p98
I104
sS'no28e'
p99
I105
sS'no28f'
p100
I106
sS'current'
p101
I108
sS'eco'
p102
I449
sS'waiting'
p103
I110
sS'3h'
p104
I111
sS'goes'
p105
I113
sS'39j'
p106
I450
sS'3c'
p107
I115
sS'new'
p108
I116
sS'3a'
p109
I117
sS'couldnt'
p110
I1142
sS'trdr'
p111
I119
sS'3f'
p112
I120
sS'funtion'
p113
I121
sS'3d'
p114
I122
sS'slot'
p115
I667
sS'39h'
p116
I627
sS'rea'
p117
I439
sS'displaued'
p118
I998
sS'18077344004'
p119
I125
sS'loose'
p120
I127
sS'modify'
p121
I128
sS'hkt'
p122
I129
sS'18077344002'
p123
I130
sS'hours'
p124
I131
sS'screencalibration'
p125
I132
sS'upgrade'
p126
I669
sS'59e'
p127
I135
sS'59d'
p128
I136
sS'lev'
p129
I137
sS'address'
p130
I138
sS'19e'
p131
I139
sS'59h'
p132
I140
sS'interna'
p133
I141
sS'19f'
p134
I142
sS'change'
p135
I118
sS'wait'
p136
I145
sS'box'
p137
I146
sS'casing'
p138
I148
sS'52a'
p139
I149
sS'52b'
p140
I150
sS'52c'
p141
I151
sS'inoperable'
p142
I153
sS'52h'
p143
I154
sS'reason'
p144
I455
sS'reports'
p145
I156
sS'18k'
p146
I719
sS'acccept'
p147
I158
sS'credit'
p148
I159
sS'accomplished'
p149
I160
sS'base'
p150
I456
sS'bom'
p151
I162
sS'social'
p152
I163
sS'missing'
p153
I766
sS'thats'
p154
I166
sS'44k58e'
p155
I1119
sS'campaign'
p156
I167
sS'apr'
p157
I168
sS'rebooting'
p158
I675
sS'transit'
p159
I170
sS'cosmetic'
p160
I172
sS'replace'
p161
I173
sS'screens'
p162
I174
sS'pull'
p163
I1183
sS'41j'
p164
I677
sS'flt'
p165
I176
sS'earphone'
p166
I178
sS'resets'
p167
I179
sS'removal'
p168
I29
sS'unit'
p169
I181
sS'corrputed'
p170
I182
sS'buttons'
p171
I679
sS'use'
p172
I184
sS'from'
p173
I185
sS'indicated'
p174
I711
sS'working'
p175
I187
sS'removallarge'
p176
I188
sS'reapir'
p177
I978
sS'chk'
p178
I189
sS'visit'
p179
I190
sS'two'
p180
I191
sS'next'
p181
I192
sS'connector'
p182
I193
sS'few'
p183
I194
sS'displayin'
p184
I195
sS'splash'
p185
I196
sS'sequencing'
p186
I1017
sS'therefore'
p187
I198
sS'centre'
p188
I1071
sS'then'
p189
I894
sS'msg'
p190
I200
sS'tounch'
p191
I201
sS'msd'
p192
I202
sS'until'
p193
I203
sS'minor'
p194
I204
sS'scratched'
p195
I206
sS'acc'
p196
I1101
sS'relax'
p197
I209
sS'started'
p198
I210
sS'under'
p199
I211
sS'44012'
p200
I212
sS'problem'
p201
I1195
sS'44010'
p202
I214
sS'c70445'
p203
I1157
sS'tested'
p204
I216
sS'functionalcheck'
p205
I217
sS'cauiton'
p206
I165
sS'scratches'
p207
I220
sS'mounted'
p208
I221
sS'33a'
p209
I222
sS'uservice'
p210
I223
sS'33b'
p211
I842
sS'fly'
p212
I225
sS'none'
p213
I227
sS'works'
p214
I1041
sS'thecurrent'
p215
I465
sS'hour'
p216
I229
sS'ecodistorded'
p217
I230
sS'this'
p218
I231
sS'thales'
p219
I69
sS'der'
p220
I233
sS'work'
p221
I234
sS'functional'
p222
I1134
sS'modified'
p223
I337
sS'worn'
p224
I236
sS'movies'
p225
I238
sS'remain'
p226
I239
sS'can'
p227
I241
sS'update'
p228
I1245
sS'of'
p229
I1109
sS'following'
p230
I243
sS'detached'
p231
I244
sS'trans'
p232
I245
sS'didnt'
p233
I246
sS'deg'
p234
I164
sS'control'
p235
I249
sS'tap'
p236
I252
sS'corrupted'
p237
I253
sS'pwer'
p238
I254
sS'oftware'
p239
I256
sS'lev1'
p240
I257
sS'in'
p241
I905
sS'orimproved'
p242
I258
sS'accept'
p243
I259
sS'aaleso'
p244
I260
sS'61j'
p245
I261
sS'chin'
p246
I263
sS'unavail'
p247
I264
sS'repaor'
p248
I265
sS'61b'
p249
I266
sS'serial'
p250
I267
sS'61a'
p251
I274
sS'61f'
p252
I269
sS'61g'
p253
I270
sS'61d'
p254
I271
sS'ofthe'
p255
I272
sS'needs'
p256
I273
sS'faulta'
p257
I301
sS'defective'
p258
I275
sS'eng'
p259
I276
sS'displa'
p260
I794
sS'damage'
p261
I278
sS'stayed'
p262
I279
sS'freezes'
p263
I280
sS'1'
I281
sS'necessary'
p264
I1025
sS'62599900544016r03'
p265
I283
sS'servieability'
p266
I692
sS'pins'
p267
I285
sS'41c'
p268
I809
sS'config'
p269
I287
sS'sim'
p270
I288
sS'stock'
p271
I289
sS'blacked'
p272
I290
sS'unserviceable'
p273
I291
sS'tried'
p274
I418
sS'45e'
p275
I678
sS'communicating'
p276
I294
sS'replacing'
p277
I0
sS'freezing'
p278
I694
sS'sfs'
p279
I1093
sS'after'
p280
I297
sS'imafe'
p281
I298
sS'bkk'
p282
I299
sS'blinking'
p283
I695
sS'55k'
p284
I334
sS'date'
p285
I304
sS'55d'
p286
I305
sS'mesg'
p287
I307
sS'response'
p288
I308
sS'mao'
p289
I309
sS'man'
p290
I310
sS'a'
I311
sS'purchase'
p291
I312
sS'threadsvdu'
p292
I314
sS'manpower'
p293
I315
sS'light'
p294
I316
sS'cbn'
p295
I1208
sS'sw'
p296
I317
sS'44015sb'
p297
I318
sS'upside'
p298
I319
sS'keeps'
p299
I320
sS'sb'
p300
I321
sS'pin1'
p301
I322
sS'software'
p302
I1125
sS'31008185'
p303
I324
sS'reseted'
p304
I325
sS'sd'
p305
I326
sS'help'
p306
I327
sS'repair'
p307
I1126
sS'over'
p308
I330
sS'move'
p309
I331
sS'displayed'
p310
I332
sS'distortion'
p311
I333
sS'through'
p312
I335
sS'srv'
p313
I1117
sS'communications'
p314
I1036
sS'during'
p315
I700
sS'responsive'
p316
I338
sS'on'
p317
I1102
sS'ffe'
p318
I339
sS'still'
p319
I340
sS'sb62599900544016'
p320
I341
sS'operative'
p321
I342
sS'blocked'
p322
I343
sS'messed'
p323
I344
sS'mod2'
p324
I345
sS'unreacheable'
p325
I738
sS'monitor'
p326
I347
sS'fit'
p327
I348
sS'tsi'
p328
I349
sS'fix'
p329
I350
sS'torn'
p330
I351
sS'29'
p331
I352
sS'exhibits'
p332
I353
sS'pcu'
p333
I354
sS'symptoms'
p334
I355
sS'detected'
p335
I356
sS'inoperativeno'
p336
I952
sS'2016'
p337
I360
sS'2010'
p338
I840
sS'2012'
p339
I362
sS'wouldn'
p340
I363
sS'non'
p341
I364
sS'49h'
p342
I366
sS'49j'
p343
I367
sS'dac'
p344
I368
sS'49d'
p345
I369
sS'49e'
p346
I370
sS'49g'
p347
I371
sS'49a'
p348
I372
sS'22b'
p349
I292
sS'flicher'
p350
I374
sS'andriod'
p351
I375
sS'28h'
p352
I1023
sS'not'
p353
I376
sS'inspect'
p354
I1091
sS'i5000'
p355
I485
sS'svdus'
p356
I379
sS'android'
p357
I929
sS'wont'
p358
I380
sS'down'
p359
I1136
sS'40e'
p360
I382
sS'workload'
p361
I383
sS'failed'
p362
I680
sS'bent'
p363
I385
sS'off'
p364
I948
sS'didn'
p365
I387
sS'40k'
p366
I388
sS'identified'
p367
I389
sS'ng0365412'
p368
I390
sS'micro'
p369
I391
sS'aftwe'
p370
I392
sS'2g'
p371
I393
sS'l2'
p372
I394
sS'ecrs'
p373
I395
sS'l1'
p374
I396
sS'36h45g41b'
p375
I1129
sS'found'
p376
I397
sS'went'
p377
I398
sS'sil'
p378
I399
sS'repaired'
p379
I400
sS'side'
p380
I401
sS'2k'
p381
I402
sS'7a28e44a37h'
p382
I262
sS'r'
I1097
sS'24a'
p383
I277
sS'abnormal'
p384
I405
sS'24h'
p385
I406
sS'related'
p386
I407
sS'inverted'
p387
I408
sS'19c'
p388
I837
sS'blanks'
p389
I410
sS'58b'
p390
I411
sS'connect'
p391
I412
sS'58a'
p392
I413
sS'mds'
p393
I329
sS'operation'
p394
I415
sS'58j'
p395
I416
sS'58k'
p396
I186
sS'out'
p397
I1237
sS'shown'
p398
I419
sS'51j'
p399
I420
sS'network'
p400
I422
sS'entertainment'
p401
I424
sS'rep'
p402
I425
sS'dsu'
p403
I892
sS'51e'
p404
I251
sS'reboot'
p405
I428
sS'load'
p406
I806
sS'56e'
p407
I430
sS'content'
p408
I431
sS're'
p409
I23
sS'investigation'
p410
I433
sS'safety'
p411
I35
sS'cwl'
p412
I435
sS'reader'
p413
I436
sS'calib'
p414
I437
sS'offline'
p415
I438
sS'receiving'
p416
I126
sS'issue'
p417
I62
sS'red'
p418
I441
sS'shows'
p419
I442
sS'sb18077344002'
p420
I443
sS'39b'
p421
I78
sS'39a'
p422
I445
sS'sb18077344006'
p423
I91
sS'ecb'
p424
I447
sS'sb18077344004'
p425
I448
sS'39k'
p426
I109
sS'hull'
p427
I114
sS'booting'
p428
I451
sS'n449514'
p429
I452
sS'little'
p430
I495
sS'8e'
p431
I17
sS'completely'
p432
I155
sS'abnormally'
p433
I161
sS'upsidedow'
p434
I457
sS'ife'
p435
I1070
sS'loads'
p436
I974
sS'card'
p437
I459
sS'md5'
p438
I460
sS'rev01if'
p439
I939
sS'fixed'
p440
I723
sS'androidscreen'
p441
I463
sS'couldn'
p442
I464
sS'g'
I228
sS'sceen'
p443
I466
sS'stucks'
p444
I467
sS'could'
p445
I468
sS'times'
p446
I268
sS'glue'
p447
I980
sS'turn'
p448
I471
sS'place'
p449
I472
sS'1009'
p450
I293
sS'unknown'
p451
I499
sS'broken'
p452
I1094
sS'vservice'
p453
I474
sS'resetting'
p454
I475
sS'waitentertainment'
p455
I477
sS'there'
p456
I1150
sS'tpcu'
p457
I480
sS'dont'
p458
I481
sS'upper'
p459
I483
sS'number'
p460
I487
sS'one'
p461
I378
sS'spinning'
p462
I486
sS'done'
p463
I488
sS'44020sb'
p464
I1151
sS'blank'
p465
I490
sS'sounds'
p466
I358
sS'bonney'
p467
I492
sS'cmmrepair'
p468
I493
sS'certainsb'
p469
I494
sS'has'
p470
I1000
sS'62599900544010'
p471
I453
sS'62599900544016'
p472
I496
sS'connection'
p473
I919
sS'18077403'
p474
I313
sS'13498ar00'
p475
I498
sS'55a'
p476
I143
sS'bite'
p477
I500
sS'swipe'
p478
I501
sS'traveller'
p479
I502
sS'system'
p480
I503
sS'hangs'
p481
I504
sS'tou'
p482
I505
sS'1a'
p483
I506
sS'paint'
p484
I507
sS'1c'
p485
I508
sS'1b'
p486
I377
sS'55c'
p487
I177
sS'jed'
p488
I511
sS'cma44107'
p489
I663
sS'doesnt'
p490
I1139
sS'1h'
p491
I514
sS'white'
p492
I515
sS'1j'
p493
I516
sS'frame'
p494
I732
sS'recovered'
p495
I518
sS'1d'
p496
I510
sS'1ea'
p497
I520
sS'vid'
p498
I986
sS'repetitive'
p499
I522
sS'1g'
p500
I523
sS'servo'
p501
I524
sS'that'
p502
I525
sS'rsd'
p503
I526
sS'17f'
p504
I527
sS'completed'
p505
I528
sS'17c'
p506
I529
sS'j1'
p507
I734
sS'45j'
p508
I531
sS'45k'
p509
I532
sS'ncl'
p510
I533
sS'pnl'
p511
I534
sS'eos'
p512
I1262
sS'unreachable'
p513
I535
sS'62k'
p514
I536
sS'fuzzy'
p515
I537
sS'45b'
p516
I538
sS'sign'
p517
I171
sS'45d'
p518
I540
sS'44012sb'
p519
I77
sS'45g'
p520
I542
sS'11'
p521
I543
sS'18c'
p522
I300
sS'12'
p523
I545
sS'18f'
p524
I546
sS'bulletins'
p525
I650
sS'showed'
p526
I548
sS'distorded'
p527
I549
sS'19'
p528
I550
sS'18'
p529
I107
sS'intermittent'
p530
I951
sS'scracthes'
p531
I552
sS'marking'
p532
I1222
sS'v2012'
p533
I985
sS'discolor'
p534
I553
sS'idle'
p535
I554
sS'2touchscreen'
p536
I555
sS'store'
p537
I556
sS'cards'
p538
I558
sS'flashes'
p539
I559
sS'gives'
p540
I519
sS'interactive'
p541
I562
sS'and'
p542
I563
sS'7d'
p543
I564
sS'7c'
p544
I565
sS'7a'
p545
I566
sS'repairiaw'
p546
I1163
sS'lines'
p547
I567
sS'svdu'
p548
I568
sS'44020'
p549
I569
sS'7k'
p550
I570
sS'defect'
p551
I571
sS'7h'
p552
I572
sS'ant'
p553
I573
sS'fail'
p554
I741
sS'say'
p555
I575
sS'fter'
p556
I576
sS'20e'
p557
I577
sS'reset'
p558
I1182
sS'have'
p559
I578
sS'distorted'
p560
I579
sS'screws'
p561
I59
sS'20k'
p562
I581
sS'null'
p563
I582
sS'any'
p564
I583
sS'rax'
p565
I584
sS'screw'
p566
I585
sS'npeel'
p567
I588
sS'check'
p568
I1218
sS'upgrading'
p569
I590
sS'note'
p570
I592
sS'recertificate'
p571
I593
sS'contact'
p572
I591
sS'take'
p573
I596
sS'which'
p574
I597
sS'dmfthan'
p575
I598
sS'green'
p576
I599
sS'ourinternal'
p577
I600
sS'inoperativeintermittently'
p578
I1111
sS'channel'
p579
I602
sS'even'
p580
I603
sS'play'
p581
I604
sS'doig'
p582
I605
sS'unless'
p583
I606
sS'headset'
p584
I482
sS'quote'
p585
I608
sS'object'
p586
I609
sS'inerted'
p587
I610
sS'fails'
p588
I746
sS'kal'
p589
I612
sS'75'
p590
I613
sS'4if'
p591
I643
sS'entry'
p592
I963
sS'phase'
p593
I617
sS'coil'
p594
I618
sS'inserted'
p595
I620
sS'armrest'
p596
I226
sS'32b'
p597
I623
sS'fualt'
p598
I624
sS'audio'
p599
I965
sS'tasg'
p600
I957
sS'32g'
p601
I626
sS'pixels'
p602
I781
sS'failure'
p603
I1172
sS'32j'
p604
I629
sS'32k'
p605
I557
sS'csreen'
p606
I586
sS'sometimes'
p607
I632
sS'request'
p608
I82
sS'offlineno'
p609
I1211
sS'32l'
p610
I635
sS'wwid'
p611
I560
sS'k1104638'
p612
I637
sS'ashley'
p613
I638
sS'continusly'
p614
I639
sS'part'
p615
I640
sS'40j'
p616
I1055
sS'error'
p617
I883
sS'clean'
p618
I641
sS'64h'
p619
I642
sS'requirement'
p620
I725
sS'bulletin'
p621
I645
sS'imageturn'
p622
I647
sS'shop'
p623
I648
sS'incorporate'
p624
I649
sS'ng0019114'
p625
I651
sS'r00'
p626
I968
sS'cdl'
p627
I653
sS'flicker'
p628
I655
sS'maint'
p629
I656
sS'enttertainment'
p630
I657
sS'43c'
p631
I658
sS'e332933'
p632
I659
sS'colors'
p633
I660
sS'planning'
p634
I661
sS'outmonitor'
p635
I71
sS'push'
p636
I1266
sS'corner'
p637
I664
sS'fine'
p638
I665
sS'find'
p639
I666
sS'41d'
p640
I123
sS'3k'
p641
I668
sS'41g'
p642
I134
sS'41a'
p643
I247
sS'failes'
p644
I671
sS'nrc2015b6538001200161g'
p645
I672
sS'notice'
p646
I763
sS'menu'
p647
I673
sS'iaw'
p648
I674
sS'41h'
p649
I169
sS'screenunable'
p650
I676
sS'removalmd5'
p651
I175
sS'operational'
p652
I147
sS'bfs'
p653
I183
sS'fadedsvdu'
p654
I73
sS'only'
p655
I681
sS'won'
p656
I755
sS'black'
p657
I683
sS'incryption'
p658
I684
sS'blace'
p659
I685
sS'flickers'
p660
I1181
sS'encrytion'
p661
I687
sS'ip'
p662
I896
sS'do'
p663
I688
sS'touchscreen'
p664
I689
sS'2ea'
p665
I690
sS'10'
p666
I544
sS'bend'
p667
I248
sS's100112vdu'
p668
I284
sS'inoperative'
p669
I693
sS'stop'
p670
I296
sS'blankinoperative'
p671
I302
sS'screeudio'
p672
I696
sS'enycryction'
p673
I697
sS'currentrevision'
p674
I698
sS'report'
p675
I699
sS'2'
I509
sS'awaiting'
p676
I701
sS'du'
p677
I346
sS'recertification'
p678
I703
sS'restart'
p679
I704
sS'disply'
p680
I705
sS'54b'
p681
I706
sS'54c'
p682
I707
sS'sensor'
p683
I708
sS'bar'
p684
I709
sS'54g'
p685
I710
sS'54j'
p686
I712
sS'h'
I713
sS'accordance'
p687
I714
sS'pixelation'
p688
I715
sS'screennot'
p689
I716
sS'twice'
p690
I717
sS'bad'
p691
I718
sS'foundmessg'
p692
I1223
sS'21b'
p693
I1013
sS'aal'
p694
I551
sS'release'
p695
I720
sS'x'
I721
sS'logbook'
p696
I722
sS'wheeling'
p697
I462
sS'sbkk'
p698
I691
sS'respond'
p699
I724
sS'38b'
p700
I484
sS'set'
p701
I726
sS'38d'
p702
I727
sS'ser'
p703
I728
sS'seq'
p704
I729
sS'unservible'
p705
I730
sS'38h'
p706
I731
sS'nut'
p707
I517
sS'2c'
p708
I975
sS'helicoil'
p709
I530
sS'module'
p710
I735
sS'freeze'
p711
I539
sS'touch'
p712
I979
sS'are'
p713
I739
sS'sea'
p714
I740
sS'corrupt'
p715
I574
sS'fadedhome'
p716
I742
sS'arm'
p717
I743
sS'03'
p718
I745
sS'phases'
p719
I611
sS'detect'
p720
I614
sS'inop44j'
p721
I1271
sS'repiar'
p722
I748
sS'movie'
p723
I749
sS'08'
p724
I750
sS'currently'
p725
I751
sS'please'
p726
I752
sS'irv'
p727
I753
sS'3'
I754
sS'unable'
p728
I682
sS'repeat'
p729
I1241
sS'correctly'
p730
I756
sS'between'
p731
I757
sS'progress'
p732
I758
sS'hold'
p733
I759
sS'reading'
p734
I760
sS'18d'
p735
I761
sS'available'
p736
I762
sS'oma'
p737
I152
sS'18077344006'
p738
I764
sS'opn'
p739
I1019
sS'unk'
p740
I803
sS'vertical'
p741
I765
sS'opening'
p742
I303
sS'screen'
p743
I767
sS'faded'
p744
I1192
sS'37k'
p745
I768
sS'jedman'
p746
I769
sS'avod'
p747
I770
sS'embody'
p748
I771
sS'aircraft'
p749
I772
sS'31h'
p750
I773
sS'comm'
p751
I774
sS'no'
p752
I1225
sS'31c'
p753
I776
sS'approval'
p754
I42
sS'31a'
p755
I778
sS'42jk'
p756
I779
sS'come'
p757
I197
sS'cmmpart'
p758
I67
sS'31e'
p759
I782
sS'31d'
p760
I783
sS'suggested'
p761
I282
sS'31k'
p762
I785
sS'c'
I786
sS'demodify'
p763
I787
sS'installation'
p764
I670
sS'53a'
p765
I987
sS'180773b04t1'
p766
I790
sS'nill'
p767
I791
sS'mono'
p768
I240
sS'taking'
p769
I887
sS'relabel'
p770
I795
sS'flipped'
p771
I797
sS's'
I798
sS'44107'
p772
I799
sS'dated'
p773
I800
sS'scrathed'
p774
I801
sS'recertify'
p775
I744
sS'intermiten'
p776
I94
sS'whole'
p777
I804
sS'e'
I1257
sS'comment'
p778
I796
sS'pre'
p779
I807
sS'v0904797'
p780
I808
sS'passenger'
p781
I1198
sS'cc'
p782
I621
sS'16e'
p783
I811
sS'16f'
p784
I812
sS'16a'
p785
I813
sS'16b'
p786
I814
sS'63a'
p787
I815
sS'62'
p788
I816
sS'reported'
p789
I817
sS'63d'
p790
I818
sS'46h'
p791
I819
sS'46k'
p792
I820
sS'credt'
p793
I777
sS'dated29'
p794
I805
sS'retreive'
p795
I823
sS'46g'
p796
I824
sS'46a'
p797
I825
sS'59k'
p798
I826
sS'16d'
p799
I827
sS'46b'
p800
I828
sS'cycling'
p801
I829
sS'disorded'
p802
I1043
sS'deep'
p803
I1210
sS'00'
p804
I831
sS'31g'
p805
I780
sS'48h'
p806
I1204
sS'due'
p807
I833
sS'fastenedzero'
p808
I834
sS'31f'
p809
I409
sS'workshop'
p810
I836
sS'39bseat'
p811
I144
sS'maintenance'
p812
I838
sS'tv'
p813
I237
sS'sbs'
p814
I775
sS'handset'
p815
I843
sS'5h'
p816
I996
sS'eso33700'
p817
I784
sS'48d'
p818
I1207
sS'flight'
p819
I848
sS'01'
p820
I747
sS'6f'
p821
I850
sS'25b'
p822
I851
sS'turned'
p823
I852
sS'multiple'
p824
I1088
sS'25a'
p825
I853
sS'irvine'
p826
I854
sS'57k'
p827
I855
sS'53d'
p828
I950
sS'controller'
p829
I857
sS'heatsink'
p830
I858
sS'rev00if'
p831
I423
sS'func'
p832
I860
sS'bull'
p833
I8
sS'2if'
p834
I862
sS'improved'
p835
I788
sS'57g'
p836
I865
sS'elp'
p837
I970
sS'57d'
p838
I867
sS'applied'
p839
I39
sS'20a'
p840
I869
sS'main'
p841
I870
sS'50j'
p842
I871
sS'fpga'
p843
I1167
sS'44015'
p844
I873
sS'frozen'
p845
I874
sS'dwnload'
p846
I1001
sS'mount'
p847
I876
sS'20c'
p848
I878
sS'50a'
p849
I92
sS'will'
p850
I880
sS'w'
I473
sS'20b'
p851
I881
sS'replaced'
p852
I882
sS'many'
p853
I601
sS'pictures'
p854
I884
sS'cracked'
p855
I885
sS'fution'
p856
I886
sS'guide'
p857
I157
sS'vod'
p858
I888
sS'va'
p859
I889
sS'would'
p860
I1106
sS'cont'
p861
I891
sS'd2'
p862
I893
sS'dema'
p863
I421
sS'svud'
p864
I895
sS'demo'
p865
I199
sS'is'
p866
I897
sS'socil'
p867
I898
sS'it'
p868
I899
sS'cant'
p869
I235
sS'brake'
p870
I903
sS'numbe'
p871
I904
sS'complaintsd'
p872
I580
sS'ready'
p873
I906
sS'ph2'
p874
I907
sS'mod'
p875
I1022
sS'seattle'
p876
I908
sS'conn'
p877
I909
sS'if'
p878
I910
sS'liwuid'
p879
I911
sS'damaged'
p880
I912
sS'20j'
p881
I913
sS'3ea'
p882
I219
sS'23k'
p883
I914
sS'pax'
p884
I915
sS'media'
p885
I916
sS'0'
I918
sS'cross'
p886
I359
sS'same'
p887
I920
sS'clearly'
p888
I921
sS'periviously'
p889
I923
sS'parts'
p890
I357
sS'hoursmonitored'
p891
I925
sS'gui'
p892
I926
sS'presb'
p893
I1009
sS'modification'
p894
I928
sS'5if'
p895
I900
sS'sb18077144007'
p896
I1219
sS'28e'
p897
I1051
sS'higher'
p898
I930
sS'status'
p899
I931
sS'incorrect'
p900
I1220
sS'used'
p901
I932
sS'23d'
p902
I432
sS'ng'
p903
I1231
sS'nil'
p904
I933
sS'47c'
p905
I1221
sS'reporting'
p906
I935
sS'upon'
p907
I936
sS'functions'
p908
I937
sS'hand'
p909
I938
sS'sys'
p910
I461
sS'wpn'
p911
I469
sS'abnml'
p912
I941
sS'49c'
p913
I373
sS'discoloration'
p914
I943
sS'keep'
p915
I470
sS'dark'
p916
I1010
sS'lower'
p917
I946
sS'elec'
p918
I215
sS'shortly'
p919
I634
sS'center'
p920
I949
sS'dent'
p921
I890
sS'i'
I429
sS'com'
p922
I953
sS'tasb'
p923
I954
sS'calibration'
p924
I955
sS'lcd'
p925
I1011
sS'ccr'
p926
I205
sS'de'
p927
I958
sS'edge'
p928
I386
sS'solve'
p929
I960
sS'osftware'
p930
I961
sS'y'
I962
sS'position'
p931
I616
sS'the'
p932
I964
sS'343c'
p933
I625
sS'blankconnector'
p934
I966
sS'attrition'
p935
I1141
sS'left'
p936
I967
sS'satis'
p937
I652
sS'r03'
p938
I969
sS'795'
p939
I1176
sS'powering'
p940
I971
sS'26d'
p941
I972
sS'sound'
p942
I973
sS'seen'
p943
I976
sS'front'
p944
I977
sS'seats'
p945
I733
sS'1hj'
p946
I737
sS'n'
I879
sS'plugged'
p947
I512
sS'yet'
p948
I981
sS'unplugged'
p949
I982
sS'53g'
p950
I983
sS'detach'
p951
I846
sS'53c'
p952
I336
sS'53b'
p953
I426
sS'tablet'
p954
I789
sS'also'
p955
I988
sS'nop'
p956
I989
sS'boot'
p957
I1228
sS'had'
p958
I224
sS'easa'
p959
I991
sS'53h'
p960
I992
sS'color'
p961
I810
sS'add'
p962
I994
sS'internal'
p963
I594
sS'hing'
p964
I995
sS'4'
I844
sS'crack'
p965
I997
sS'5e'
p966
I856
sS'5g'
p967
I866
sS'playing'
p968
I561
sS'5a'
p969
I875
sS'match'
p970
I1002
sS'5b'
p971
I1003
sS'real'
p972
I1004
sS'40g'
p973
I1005
sS'anouncement'
p974
I1006
sS'flashing'
p975
I999
sS'ops'
p976
I917
sS'read'
p977
I1008
sS'big'
p978
I927
sS'21f'
p979
I945
sS'21d'
p980
I956
sS'21e'
p981
I1012
sS'reads'
p982
I901
sS'pop'
p983
I1014
sS'mom'
p984
I1015
sS'21a'
p985
I1016
sS'installed'
p986
I702
sS'vdu'
p987
I1018
sS'23a'
p988
I454
sS'21j'
p989
I1020
sS'rear'
p990
I1021
sS'53k'
p991
I990
sS'insert'
p992
I1007
sS'59'
p993
I942
sS'like'
p994
I1026
sS'bracket'
p995
I1233
sS'28a'
p996
I547
sS'modication'
p997
I1028
sS'message'
p998
I491
sS'28b'
p999
I1030
sS'pinwheels'
p1000
I476
sS'28d'
p1001
I1032
sS'background'
p1002
I1033
sS'28f'
p1003
I1034
sS'maintenan'
p1004
I365
sS'55'
p1005
I1027
sS'revisionof'
p1006
I1037
sS'frozenreset'
p1007
I1038
sS't'
I1039
sS'flickering'
p1008
I1040
sS'mode'
p1009
I1082
sS'fault'
p1010
I792
sS'soft'
p1011
I250
sS'28c'
p1012
I1029
sS'trying'
p1013
I1044
sS'replacement'
p1014
I1045
sS'creen'
p1015
I1046
sS'drop'
p1016
I1047
sS'old'
p1017
I1048
sS'31237248'
p1018
I1049
sS'sequence'
p1019
I644
sS'2x'
p1020
I521
sS'theaal'
p1021
I821
sS'back'
p1022
I1053
sS'dead'
p1023
I1054
sS'transaction'
p1024
I947
sS'certain'
p1025
I1205
sS'thread'
p1026
I1057
sS'vsb'
p1027
I1058
sS'service'
p1028
I497
sS'auhn'
p1029
I1059
sS'28g'
p1030
I1060
sS'loaded'
p1031
I1061
sS'proper'
p1032
I1062
sS'home'
p1033
I1063
sS'30b'
p1034
I1064
sS'30f'
p1035
I1065
sS'30g'
p1036
I1066
sS'was'
p1037
I1160
sS'intermittently'
p1038
I1035
sS'icn'
p1039
I1068
sS'for'
p1040
I1069
sS'downloadunreachable'
p1041
I595
sS'ear'
p1042
I1179
sS'normal'
p1043
I607
sS'31ac'
p1044
I1072
sS'per'
p1045
I1073
sS'prop'
p1046
I1074
sS'fod'
p1047
I19
sS'when'
p1048
I1076
sS'does'
p1049
I1077
sS'screenblack'
p1050
I1079
sS'foc'
p1051
I1080
sS'eso'
p1052
I1081
sS'refer'
p1053
I458
sS'cord'
p1054
I3
sS'be'
p1055
I1084
sS'cgk'
p1056
I1085
sS'pls'
p1057
I1086
sS'power'
p1058
I1087
sS'posi'
p1059
I103
sS'appeared'
p1060
I993
sS'reach'
p1061
I1090
sS'burn'
p1062
I124
sS'plz'
p1063
I208
sS'ng0355723'
p1064
I646
sS'dropped'
p1065
I1089
sS'display'
p1066
I1196
sS'pinwheeling'
p1067
I1095
sS'tdr'
p1068
I1096
sS'maintence'
p1069
I619
sS'by'
p1070
I1098
sS'lights'
p1071
I1099
sS'panel'
p1072
I1100
sS'plug'
p1073
I207
sS'42h'
p1074
I44
sS'42k'
p1075
I1103
sS'42j'
p1076
I218
sS'ok'
p1077
I1105
sS'socket'
p1078
I242
sS'world'
p1079
I1107
sS'face'
p1080
I1217
sS'42a'
p1081
I1108
sS'screeen'
p1082
I1042
sS'42c'
p1083
I1110
sS'42b'
p1084
I902
sS'42e'
p1085
I1112
sS'42d'
p1086
I1113
sS'serviceable'
p1087
I1114
sS'scdu'
p1088
I1115
sS'cmas'
p1089
I1116
sS'plus'
p1090
I286
sS'waded'
p1091
I1118
sS'encryption'
p1092
I832
sS'15e'
p1093
I1249
sS'idd'
p1094
I1121
sS'ot'
p1095
I1122
sS'30a'
p1096
I1215
sS'or'
p1097
I1123
sS'automatically'
p1098
I1124
sS'dispaly'
p1099
I323
sS'rev03'
p1100
I328
sS'rev00'
p1101
I1127
sS'rev'
p1102
I427
sS'22j'
p1103
I1128
sS'malfunction'
p1104
I403
sS'communication'
p1105
I1130
sS'into'
p1106
I361
sS'22d'
p1107
I1132
sS'22c'
p1108
I1133
sS'sdcard'
p1109
I47
sS'headphone'
p1110
I1135
sS'56h'
p1111
I381
sS'services'
p1112
I1137
sS'56j'
p1113
I1138
sS'56k'
p1114
I513
sS'13498ar00if'
p1115
I404
sS'56b'
p1116
I654
sS'mark'
p1117
I835
sS'56d'
p1118
I1143
sS'bezel'
p1119
I133
sS'56g'
p1120
I1145
sS'unavailable'
p1121
I1146
sS'preservice'
p1122
I1147
sS'log'
p1123
I1148
sS'housing'
p1124
I1149
sS'initial'
p1125
I479
sS'long'
p1126
I489
sS'avail'
p1127
I1152
sS'stuck'
p1128
I1153
sS'pa'
p1129
I1154
sS'low'
p1130
I1155
sS'way'
p1131
I1156
sS'pinwheel'
p1132
I1158
sS'fco'
p1133
I622
sS'bubble'
p1134
I255
sS'42f'
p1135
I1161
sS'function'
p1136
I1162
sS'became'
p1137
I924
sS'rju'
p1138
I1164
sS'pwr'
p1139
I1165
sS'complete'
p1140
I1166
sS'form'
p1141
I68
sS'something'
p1142
I1168
sS'attempted'
p1143
I1169
sS'but'
p1144
I1170
sS'volume'
p1145
I1171
sS'shroud'
p1146
I628
sS'properly'
p1147
I1173
sS'link'
p1148
I1174
sS'24k'
p1149
I1175
sS'filed'
p1150
I1092
sS'fastened'
p1151
I1177
sS'line'
p1152
I1178
sS'removed'
p1153
I631
sS'with'
p1154
I1180
sS'ph'
p1155
I841
sS'wazy'
p1156
I686
sS'info'
p1157
I478
sS'no41g41h28g'
p1158
I1031
sS'responding'
p1159
I1184
sS'distored'
p1160
I1185
sS'cid'
p1161
I1186
sS'inside'
p1162
I1187
sS'up'
p1163
I1188
sS'us'
p1164
I1189
sS'customers'
p1165
I1190
sS'dirty'
p1166
I1191
sS'doc'
p1167
I630
sS'continuously'
p1168
I1193
sS'removaltouch'
p1169
I1194
sS'distribution'
p1170
I213
sS'reconnecting'
p1171
I1078
sS'intermitently'
p1172
I1197
sS'separated'
p1173
I1056
sS'upno'
p1174
I1199
sS'discolored'
p1175
I1201
sS'48j'
p1176
I1202
sS'icon'
p1177
I1159
sS'25k'
p1178
I845
sS'cover'
p1179
I633
sS'tpmu'
p1180
I822
sS'pic'
p1181
I847
sS'48c'
p1182
I793
sS'remove'
p1183
I1209
sS'48a'
p1184
I830
sS'an'
p1185
I864
sS'as'
p1186
I1212
sS'right'
p1187
I1213
sS'at'
p1188
I1214
sS'our'
p1189
I414
sS'pip'
p1190
I1216
sS'unsuccessful'
p1191
I1052
sS'doe'
p1192
I636
sS'inspections'
p1193
I589
sS'6e'
p1194
I849
sS'46j'
p1195
I1140
sS'again'
p1196
I934
sS'threads'
p1197
I802
sS'47g'
p1198
I944
sS'47d'
p1199
I1224
sS'47e'
p1200
I922
sS'47j'
p1201
I1226
sS'47'
p1202
I1227
sS'1k'
p1203
I541
sS'tip'
p1204
I877
sS'rs'
p1205
I1229
sS'invalid'
p1206
I1230
sS'monitors'
p1207
I417
sS'stucked'
p1208
I1232
sS'inter'
p1209
I1104
sS'5'
I1234
sS'airlines'
p1210
I1235
sS'test'
p1211
I1236
sS'e36292'
p1212
I1024
sS'noresponse'
p1213
I1238
sS'revision'
p1214
I1239
sS'picture'
p1215
I1240
sS'inscpect'
p1216
I306
sS'pinwheelsplease'
p1217
I1242
sS'sdxl'
p1218
I1243
sS'provided'
p1219
I1067
sS'bottom'
p1220
I1260
sS'sdxc'
p1221
I1244
sS'm'
I940
sS'dented'
p1222
I1246
sS'stay'
p1223
I1247
sS'loading'
p1224
I984
sS'fell'
p1225
I1248
sS'60a'
p1226
I1120
sS'15d'
p1227
I1250
sS'15g'
p1228
I1251
sS'15f'
p1229
I1252
sS'scratchy'
p1230
I1253
sS'unresponsive'
p1231
I1254
sS'your'
p1232
I1144
sS'requirementrev'
p1233
I1255
sS'9if'
p1234
I1256
sS'remote'
p1235
I872
sS'21072986'
p1236
I1258
sS'hellicoil'
p1237
I1259
sS'required'
p1238
I1200
sS'locate'
p1239
I1083
sS'sva'
p1240
I1261
sS'seat'
p1241
I736
sS'seatback'
p1242
I1263
sS'u'
I1264
sS'invaild'
p1243
I295
sS'image'
p1244
I1131
sS'time'
p1245
I1265
sS'recognize'
p1246
I839
sS'respnding'
p1247
I1267
sS'4d'
p1248
I1268
sS'4a'
p1249
I1269
sS'4c'
p1250
I1270
sS'external'
p1251
I859
s.(lp1
S'replacing'
p2
aS'all'
p3
aS'code'
p4
aS'cord'
p5
aS'consider'
p6
aS'edd'
p7
aS'scratch'
p8
aS'iamge'
p9
aS'bull'
p10
aS'refcma'
p11
aS'inarm'
p12
aS'obstruction'
p13
aS'mnl'
p14
aS'go'
p15
aS'ptv'
p16
aS'displaying'
p17
aS'predeparture'
p18
aS'8e'
p19
aS'lace'
p20
aS'fod'
p21
aS'ware'
p22
aS'29j'
p23
aS'29k'
p24
aS're'
p25
aS'29f'
p26
aS'auh'
p27
aS'29d'
p28
aS'29b'
p29
aS'29c'
p30
aS'removal'
p31
aS'1349ar00'
p32
aS'to'
p33
aS'program'
p34
aS'swap'
p35
aS'stable'
p36
aS'safety'
p37
aS'spillage'
p38
aS'faols'
p39
aS'sent'
p40
aS'applied'
p41
aS'mpd'
p42
aS'downloading'
p43
aS'approval'
p44
aS'sbplease'
p45
aS'42h'
p46
aS'no42d'
p47
aS'4ea'
p48
aS'sdcard'
p49
aS'lru'
p50
aS'jack'
p51
aS'stays'
p52
aS'blanked'
p53
aS'e510211'
p54
aS'wontt'
p55
aS'condition'
p56
aS'entire'
p57
aS'cmm'
p58
aS'cml'
p59
aS'442503'
p60
aS'screws'
p61
aS'level'
p62
aS'did'
p63
aS'issue'
p64
aS'button'
p65
aS'applicable'
p66
aS'cma'
p67
aS'p'
aS'cmmpart'
p68
aS'form'
p69
aS'thales'
p70
aS'small'
p71
aS'outmonitor'
p72
aS'inopblankback'
p73
aS'fadedsvdu'
p74
aS'inspection'
p75
aS'deformed'
p76
aS'says'
p77
aS'44012sb'
p78
aS'39b'
p79
aS'10c'
p80
aS's100112'
p81
aS'10f'
p82
aS'request'
p83
aS'10e'
p84
aS'44j'
p85
aS'zero'
p86
aS'44h'
p87
aS'video'
p88
aS'displays'
p89
aS'baseiction'
p90
aS'download'
p91
aS'sb18077344006'
p92
aS'50a'
p93
aS'port'
p94
aS'intermiten'
p95
aS'blue'
p96
aS'neo'
p97
aS'43j'
p98
aS'43k'
p99
aS'64f'
p100
aS'giving'
p101
aS'43g'
p102
aS'no28b'
p103
aS'posi'
p104
aS'43b'
p105
aS'no28e'
p106
aS'no28f'
p107
aS'18'
p108
aS'current'
p109
aS'39k'
p110
aS'waiting'
p111
aS'3h'
p112
aS'causes'
p113
aS'goes'
p114
aS'hull'
p115
aS'3c'
p116
aS'new'
p117
aS'3a'
p118
aS'change'
p119
aS'trdr'
p120
aS'3f'
p121
aS'funtion'
p122
aS'3d'
p123
aS'41d'
p124
aS'burn'
p125
aS'18077344004'
p126
aS'receiving'
p127
aS'loose'
p128
aS'modify'
p129
aS'hkt'
p130
aS'18077344002'
p131
aS'hours'
p132
aS'screencalibration'
p133
aS'bezel'
p134
aS'41g'
p135
aS'59e'
p136
aS'59d'
p137
aS'lev'
p138
aS'address'
p139
aS'19e'
p140
aS'59h'
p141
aS'interna'
p142
aS'19f'
p143
aS'55a'
p144
aS'39bseat'
p145
aS'wait'
p146
aS'box'
p147
aS'operational'
p148
aS'casing'
p149
aS'52a'
p150
aS'52b'
p151
aS'52c'
p152
aS'oma'
p153
aS'inoperable'
p154
aS'52h'
p155
aS'completely'
p156
aS'reports'
p157
aS'guide'
p158
aS'acccept'
p159
aS'credit'
p160
aS'accomplished'
p161
aS'abnormally'
p162
aS'bom'
p163
aS'social'
p164
aS'deg'
p165
aS'cauiton'
p166
aS'thats'
p167
aS'campaign'
p168
aS'apr'
p169
aS'41h'
p170
aS'transit'
p171
aS'sign'
p172
aS'cosmetic'
p173
aS'replace'
p174
aS'screens'
p175
aS'removalmd5'
p176
aS'flt'
p177
aS'55c'
p178
aS'earphone'
p179
aS'resets'
p180
aS'29a'
p181
aS'unit'
p182
aS'corrputed'
p183
aS'bfs'
p184
aS'use'
p185
aS'from'
p186
aS'58k'
p187
aS'working'
p188
aS'removallarge'
p189
aS'chk'
p190
aS'visit'
p191
aS'two'
p192
aS'next'
p193
aS'connector'
p194
aS'few'
p195
aS'displayin'
p196
aS'splash'
p197
aS'come'
p198
aS'therefore'
p199
aS'demo'
p200
aS'msg'
p201
aS'tounch'
p202
aS'msd'
p203
aS'until'
p204
aS'minor'
p205
aS'ccr'
p206
aS'scratched'
p207
aS'plug'
p208
aS'plz'
p209
aS'relax'
p210
aS'started'
p211
aS'under'
p212
aS'44012'
p213
aS'distribution'
p214
aS'44010'
p215
aS'elec'
p216
aS'tested'
p217
aS'functionalcheck'
p218
aS'42j'
p219
aS'3ea'
p220
aS'scratches'
p221
aS'mounted'
p222
aS'33a'
p223
aS'uservice'
p224
aS'had'
p225
aS'fly'
p226
aS'armrest'
p227
aS'none'
p228
aS'g'
aS'hour'
p229
aS'ecodistorded'
p230
aS'this'
p231
aS'car'
p232
aS'der'
p233
aS'work'
p234
aS'cant'
p235
aS'worn'
p236
aS'tv'
p237
aS'movies'
p238
aS'remain'
p239
aS'mono'
p240
aS'can'
p241
aS'socket'
p242
aS'following'
p243
aS'detached'
p244
aS'trans'
p245
aS'didnt'
p246
aS'41a'
p247
aS'bend'
p248
aS'control'
p249
aS'soft'
p250
aS'51e'
p251
aS'tap'
p252
aS'corrupted'
p253
aS'pwer'
p254
aS'bubble'
p255
aS'oftware'
p256
aS'lev1'
p257
aS'orimproved'
p258
aS'accept'
p259
aS'aaleso'
p260
aS'61j'
p261
aS'7a28e44a37h'
p262
aS'chin'
p263
aS'unavail'
p264
aS'repaor'
p265
aS'61b'
p266
aS'serial'
p267
aS'times'
p268
aS'61f'
p269
aS'61g'
p270
aS'61d'
p271
aS'ofthe'
p272
aS'needs'
p273
aS'61a'
p274
aS'defective'
p275
aS'eng'
p276
aS'24a'
p277
aS'damage'
p278
aS'stayed'
p279
aS'freezes'
p280
aS'1'
aS'suggested'
p281
aS'62599900544016r03'
p282
aS's100112vdu'
p283
aS'pins'
p284
aS'plus'
p285
aS'config'
p286
aS'sim'
p287
aS'stock'
p288
aS'blacked'
p289
aS'unserviceable'
p290
aS'22b'
p291
aS'1009'
p292
aS'communicating'
p293
aS'invaild'
p294
aS'stop'
p295
aS'after'
p296
aS'imafe'
p297
aS'bkk'
p298
aS'18c'
p299
aS'faulta'
p300
aS'blankinoperative'
p301
aS'opening'
p302
aS'date'
p303
aS'55d'
p304
aS'inscpect'
p305
aS'mesg'
p306
aS'response'
p307
aS'mao'
p308
aS'man'
p309
aS'a'
aS'purchase'
p310
aS'18077403'
p311
aS'threadsvdu'
p312
aS'manpower'
p313
aS'light'
p314
aS'sw'
p315
aS'44015sb'
p316
aS'upside'
p317
aS'keeps'
p318
aS'sb'
p319
aS'pin1'
p320
aS'dispaly'
p321
aS'31008185'
p322
aS'reseted'
p323
aS'sd'
p324
aS'help'
p325
aS'rev03'
p326
aS'mds'
p327
aS'over'
p328
aS'move'
p329
aS'displayed'
p330
aS'distortion'
p331
aS'55k'
p332
aS'through'
p333
aS'53c'
p334
aS'modified'
p335
aS'responsive'
p336
aS'ffe'
p337
aS'still'
p338
aS'sb62599900544016'
p339
aS'operative'
p340
aS'blocked'
p341
aS'messed'
p342
aS'mod2'
p343
aS'du'
p344
aS'monitor'
p345
aS'fit'
p346
aS'tsi'
p347
aS'fix'
p348
aS'torn'
p349
aS'29'
p350
aS'exhibits'
p351
aS'pcu'
p352
aS'symptoms'
p353
aS'detected'
p354
aS'parts'
p355
aS'sounds'
p356
aS'cross'
p357
aS'2016'
p358
aS'into'
p359
aS'2012'
p360
aS'wouldn'
p361
aS'non'
p362
aS'maintenan'
p363
aS'49h'
p364
aS'49j'
p365
aS'dac'
p366
aS'49d'
p367
aS'49e'
p368
aS'49g'
p369
aS'49a'
p370
aS'49c'
p371
aS'flicher'
p372
aS'andriod'
p373
aS'not'
p374
aS'1b'
p375
aS'one'
p376
aS'svdus'
p377
aS'wont'
p378
aS'56h'
p379
aS'40e'
p380
aS'workload'
p381
aS'cable'
p382
aS'bent'
p383
aS'edge'
p384
aS'didn'
p385
aS'40k'
p386
aS'identified'
p387
aS'ng0365412'
p388
aS'micro'
p389
aS'aftwe'
p390
aS'2g'
p391
aS'l2'
p392
aS'ecrs'
p393
aS'l1'
p394
aS'found'
p395
aS'went'
p396
aS'sil'
p397
aS'repaired'
p398
aS'side'
p399
aS'2k'
p400
aS'malfunction'
p401
aS'13498ar00if'
p402
aS'abnormal'
p403
aS'24h'
p404
aS'related'
p405
aS'inverted'
p406
aS'31f'
p407
aS'blanks'
p408
aS'58b'
p409
aS'connect'
p410
aS'58a'
p411
aS'our'
p412
aS'operation'
p413
aS'58j'
p414
aS'monitors'
p415
aS'tried'
p416
aS'shown'
p417
aS'51j'
p418
aS'dema'
p419
aS'network'
p420
aS'rev00if'
p421
aS'entertainment'
p422
aS'rep'
p423
aS'53b'
p424
aS'rev'
p425
aS'reboot'
p426
aS'i'
aS'56e'
p427
aS'content'
p428
aS'23d'
p429
aS'investigation'
p430
aS'44056'
p431
aS'cwl'
p432
aS'reader'
p433
aS'calib'
p434
aS'offline'
p435
aS'rea'
p436
aS'ref'
p437
aS'red'
p438
aS'shows'
p439
aS'sb18077344002'
p440
aS'toucscreen'
p441
aS'39a'
p442
aS'inop'
p443
aS'ecb'
p444
aS'sb18077344004'
p445
aS'eco'
p446
aS'39j'
p447
aS'booting'
p448
aS'n449514'
p449
aS'62599900544010'
p450
aS'23a'
p451
aS'reason'
p452
aS'base'
p453
aS'upsidedow'
p454
aS'refer'
p455
aS'card'
p456
aS'md5'
p457
aS'sys'
p458
aS'wheeling'
p459
aS'androidscreen'
p460
aS'couldn'
p461
aS'thecurrent'
p462
aS'sceen'
p463
aS'stucks'
p464
aS'could'
p465
aS'wpn'
p466
aS'keep'
p467
aS'turn'
p468
aS'place'
p469
aS'w'
aS'vservice'
p470
aS'resetting'
p471
aS'pinwheels'
p472
aS'waitentertainment'
p473
aS'info'
p474
aS'initial'
p475
aS'tpcu'
p476
aS'dont'
p477
aS'headset'
p478
aS'upper'
p479
aS'38b'
p480
aS'i5000'
p481
aS'spinning'
p482
aS'number'
p483
aS'done'
p484
aS'long'
p485
aS'blank'
p486
aS'message'
p487
aS'bonney'
p488
aS'cmmrepair'
p489
aS'certainsb'
p490
aS'little'
p491
aS'62599900544016'
p492
aS'service'
p493
aS'13498ar00'
p494
aS'unknown'
p495
aS'bite'
p496
aS'swipe'
p497
aS'traveller'
p498
aS'system'
p499
aS'hangs'
p500
aS'tou'
p501
aS'1a'
p502
aS'paint'
p503
aS'1c'
p504
aS'2'
aS'1d'
p505
aS'jed'
p506
aS'plugged'
p507
aS'56k'
p508
aS'1h'
p509
aS'white'
p510
aS'1j'
p511
aS'nut'
p512
aS'recovered'
p513
aS'gives'
p514
aS'1ea'
p515
aS'2x'
p516
aS'repetitive'
p517
aS'1g'
p518
aS'servo'
p519
aS'that'
p520
aS'rsd'
p521
aS'17f'
p522
aS'completed'
p523
aS'17c'
p524
aS'helicoil'
p525
aS'45j'
p526
aS'45k'
p527
aS'ncl'
p528
aS'pnl'
p529
aS'unreachable'
p530
aS'62k'
p531
aS'fuzzy'
p532
aS'45b'
p533
aS'freeze'
p534
aS'45d'
p535
aS'1k'
p536
aS'45g'
p537
aS'11'
p538
aS'10'
p539
aS'12'
p540
aS'18f'
p541
aS'28a'
p542
aS'showed'
p543
aS'distorded'
p544
aS'19'
p545
aS'aal'
p546
aS'scracthes'
p547
aS'discolor'
p548
aS'idle'
p549
aS'2touchscreen'
p550
aS'store'
p551
aS'32k'
p552
aS'cards'
p553
aS'flashes'
p554
aS'wwid'
p555
aS'playing'
p556
aS'interactive'
p557
aS'and'
p558
aS'7d'
p559
aS'7c'
p560
aS'7a'
p561
aS'lines'
p562
aS'svdu'
p563
aS'44020'
p564
aS'7k'
p565
aS'defect'
p566
aS'7h'
p567
aS'ant'
p568
aS'corrupt'
p569
aS'say'
p570
aS'fter'
p571
aS'20e'
p572
aS'have'
p573
aS'distorted'
p574
aS'complaintsd'
p575
aS'20k'
p576
aS'null'
p577
aS'any'
p578
aS'rax'
p579
aS'screw'
p580
aS'csreen'
p581
aS'functioning'
p582
aS'npeel'
p583
aS'inspections'
p584
aS'upgrading'
p585
aS'contact'
p586
aS'note'
p587
aS'recertificate'
p588
aS'internal'
p589
aS'downloadunreachable'
p590
aS'take'
p591
aS'which'
p592
aS'dmfthan'
p593
aS'green'
p594
aS'ourinternal'
p595
aS'many'
p596
aS'channel'
p597
aS'even'
p598
aS'play'
p599
aS'doig'
p600
aS'unless'
p601
aS'normal'
p602
aS'quote'
p603
aS'object'
p604
aS'inerted'
p605
aS'phases'
p606
aS'kal'
p607
aS'75'
p608
aS'detect'
p609
aS'8h'
p610
aS'position'
p611
aS'phase'
p612
aS'coil'
p613
aS'maintence'
p614
aS'inserted'
p615
aS'cc'
p616
aS'fco'
p617
aS'32b'
p618
aS'fualt'
p619
aS'343c'
p620
aS'32g'
p621
aS'39h'
p622
aS'shroud'
p623
aS'32j'
p624
aS'doc'
p625
aS'removed'
p626
aS'sometimes'
p627
aS'cover'
p628
aS'shortly'
p629
aS'32l'
p630
aS'doe'
p631
aS'k1104638'
p632
aS'ashley'
p633
aS'continusly'
p634
aS'part'
p635
aS'clean'
p636
aS'64h'
p637
aS'4if'
p638
aS'sequence'
p639
aS'bulletin'
p640
aS'ng0355723'
p641
aS'imageturn'
p642
aS'shop'
p643
aS'incorporate'
p644
aS'bulletins'
p645
aS'ng0019114'
p646
aS'satis'
p647
aS'cdl'
p648
aS'56b'
p649
aS'flicker'
p650
aS'maint'
p651
aS'enttertainment'
p652
aS'43c'
p653
aS'e332933'
p654
aS'colors'
p655
aS'planning'
p656
aS'99a'
p657
aS'cma44107'
p658
aS'corner'
p659
aS'fine'
p660
aS'find'
p661
aS'slot'
p662
aS'3k'
p663
aS'upgrade'
p664
aS'installation'
p665
aS'failes'
p666
aS'nrc2015b6538001200161g'
p667
aS'menu'
p668
aS'iaw'
p669
aS'rebooting'
p670
aS'screenunable'
p671
aS'41j'
p672
aS'45e'
p673
aS'buttons'
p674
aS'failed'
p675
aS'only'
p676
aS'unable'
p677
aS'black'
p678
aS'incryption'
p679
aS'blace'
p680
aS'wazy'
p681
aS'encrytion'
p682
aS'do'
p683
aS'touchscreen'
p684
aS'2ea'
p685
aS'sbkk'
p686
aS'servieability'
p687
aS'inoperative'
p688
aS'freezing'
p689
aS'blinking'
p690
aS'screeudio'
p691
aS'enycryction'
p692
aS'currentrevision'
p693
aS'report'
p694
aS'during'
p695
aS'awaiting'
p696
aS'installed'
p697
aS'recertification'
p698
aS'restart'
p699
aS'disply'
p700
aS'54b'
p701
aS'54c'
p702
aS'sensor'
p703
aS'bar'
p704
aS'54g'
p705
aS'indicated'
p706
aS'54j'
p707
aS'h'
aS'accordance'
p708
aS'pixelation'
p709
aS'screennot'
p710
aS'twice'
p711
aS'bad'
p712
aS'18k'
p713
aS'release'
p714
aS'x'
aS'logbook'
p715
aS'fixed'
p716
aS'respond'
p717
aS'requirement'
p718
aS'set'
p719
aS'38d'
p720
aS'ser'
p721
aS'seq'
p722
aS'unservible'
p723
aS'38h'
p724
aS'frame'
p725
aS'seats'
p726
aS'j1'
p727
aS'module'
p728
aS'seat'
p729
aS'1hj'
p730
aS'unreacheable'
p731
aS'are'
p732
aS'sea'
p733
aS'fail'
p734
aS'fadedhome'
p735
aS'arm'
p736
aS'recertify'
p737
aS'03'
p738
aS'fails'
p739
aS'01'
p740
aS'repiar'
p741
aS'movie'
p742
aS'08'
p743
aS'currently'
p744
aS'please'
p745
aS'irv'
p746
aS'3'
aS'won'
p747
aS'correctly'
p748
aS'between'
p749
aS'progress'
p750
aS'hold'
p751
aS'reading'
p752
aS'18d'
p753
aS'available'
p754
aS'notice'
p755
aS'18077344006'
p756
aS'vertical'
p757
aS'missing'
p758
aS'screen'
p759
aS'37k'
p760
aS'jedman'
p761
aS'avod'
p762
aS'embody'
p763
aS'aircraft'
p764
aS'31h'
p765
aS'comm'
p766
aS'sbs'
p767
aS'31c'
p768
aS'credt'
p769
aS'31a'
p770
aS'42jk'
p771
aS'31g'
p772
aS'pixels'
p773
aS'31e'
p774
aS'31d'
p775
aS'eso33700'
p776
aS'31k'
p777
aS'c'
aS'demodify'
p778
aS'improved'
p779
aS'tablet'
p780
aS'180773b04t1'
p781
aS'nill'
p782
aS'fault'
p783
aS'48c'
p784
aS'displa'
p785
aS'relabel'
p786
aS'comment'
p787
aS'flipped'
p788
aS's'
aS'44107'
p789
aS'dated'
p790
aS'scrathed'
p791
aS'threads'
p792
aS'unk'
p793
aS'whole'
p794
aS'dated29'
p795
aS'load'
p796
aS'pre'
p797
aS'v0904797'
p798
aS'41c'
p799
aS'color'
p800
aS'16e'
p801
aS'16f'
p802
aS'16a'
p803
aS'16b'
p804
aS'63a'
p805
aS'62'
p806
aS'reported'
p807
aS'63d'
p808
aS'46h'
p809
aS'46k'
p810
aS'theaal'
p811
aS'tpmu'
p812
aS'retreive'
p813
aS'46g'
p814
aS'46a'
p815
aS'59k'
p816
aS'16d'
p817
aS'46b'
p818
aS'cycling'
p819
aS'48a'
p820
aS'00'
p821
aS'encryption'
p822
aS'due'
p823
aS'fastenedzero'
p824
aS'mark'
p825
aS'workshop'
p826
aS'19c'
p827
aS'maintenance'
p828
aS'recognize'
p829
aS'2010'
p830
aS'ph'
p831
aS'33b'
p832
aS'handset'
p833
aS'4'
aS'25k'
p834
aS'detach'
p835
aS'pic'
p836
aS'flight'
p837
aS'6e'
p838
aS'6f'
p839
aS'25b'
p840
aS'turned'
p841
aS'25a'
p842
aS'irvine'
p843
aS'57k'
p844
aS'5e'
p845
aS'controller'
p846
aS'heatsink'
p847
aS'external'
p848
aS'func'
p849
aS'demand'
p850
aS'2if'
p851
aS'57b'
p852
aS'an'
p853
aS'57g'
p854
aS'5g'
p855
aS'57d'
p856
aS'case'
p857
aS'20a'
p858
aS'main'
p859
aS'50j'
p860
aS'remote'
p861
aS'44015'
p862
aS'frozen'
p863
aS'5a'
p864
aS'mount'
p865
aS'tip'
p866
aS'20c'
p867
aS'n'
aS'will'
p868
aS'20b'
p869
aS'replaced'
p870
aS'error'
p871
aS'pictures'
p872
aS'cracked'
p873
aS'fution'
p874
aS'taking'
p875
aS'vod'
p876
aS'va'
p877
aS'dent'
p878
aS'cont'
p879
aS'dsu'
p880
aS'd2'
p881
aS'then'
p882
aS'svud'
p883
aS'ip'
p884
aS'is'
p885
aS'socil'
p886
aS'it'
p887
aS'5if'
p888
aS'reads'
p889
aS'42b'
p890
aS'brake'
p891
aS'numbe'
p892
aS'in'
p893
aS'ready'
p894
aS'ph2'
p895
aS'seattle'
p896
aS'conn'
p897
aS'if'
p898
aS'liwuid'
p899
aS'damaged'
p900
aS'20j'
p901
aS'23k'
p902
aS'pax'
p903
aS'media'
p904
aS'ops'
p905
aS'0'
aS'connection'
p906
aS'same'
p907
aS'clearly'
p908
aS'47e'
p909
aS'periviously'
p910
aS'became'
p911
aS'hoursmonitored'
p912
aS'gui'
p913
aS'big'
p914
aS'modification'
p915
aS'android'
p916
aS'higher'
p917
aS'status'
p918
aS'used'
p919
aS'nil'
p920
aS'again'
p921
aS'reporting'
p922
aS'upon'
p923
aS'functions'
p924
aS'hand'
p925
aS'rev01if'
p926
aS'm'
aS'abnml'
p927
aS'59'
p928
aS'discoloration'
p929
aS'47g'
p930
aS'21f'
p931
aS'lower'
p932
aS'transaction'
p933
aS'off'
p934
aS'center'
p935
aS'53d'
p936
aS'intermittent'
p937
aS'inoperativeno'
p938
aS'com'
p939
aS'tasb'
p940
aS'calibration'
p941
aS'21d'
p942
aS'tasg'
p943
aS'de'
p944
aS'without'
p945
aS'solve'
p946
aS'osftware'
p947
aS'y'
aS'entry'
p948
aS'the'
p949
aS'audio'
p950
aS'blankconnector'
p951
aS'left'
p952
aS'r00'
p953
aS'r03'
p954
aS'elp'
p955
aS'powering'
p956
aS'26d'
p957
aS'sound'
p958
aS'loads'
p959
aS'2c'
p960
aS'seen'
p961
aS'front'
p962
aS'reapir'
p963
aS'touch'
p964
aS'glue'
p965
aS'yet'
p966
aS'unplugged'
p967
aS'53g'
p968
aS'loading'
p969
aS'v2012'
p970
aS'vid'
p971
aS'53a'
p972
aS'also'
p973
aS'nop'
p974
aS'53k'
p975
aS'easa'
p976
aS'53h'
p977
aS'appeared'
p978
aS'add'
p979
aS'hing'
p980
aS'5h'
p981
aS'crack'
p982
aS'displaued'
p983
aS'flashing'
p984
aS'has'
p985
aS'dwnload'
p986
aS'match'
p987
aS'5b'
p988
aS'real'
p989
aS'40g'
p990
aS'anouncement'
p991
aS'insert'
p992
aS'read'
p993
aS'presb'
p994
aS'dark'
p995
aS'lcd'
p996
aS'21e'
p997
aS'21b'
p998
aS'pop'
p999
aS'mom'
p1000
aS'21a'
p1001
aS'sequencing'
p1002
aS'vdu'
p1003
aS'opn'
p1004
aS'21j'
p1005
aS'rear'
p1006
aS'mod'
p1007
aS'28h'
p1008
aS'e36292'
p1009
aS'necessary'
p1010
aS'like'
p1011
aS'55'
p1012
aS'modication'
p1013
aS'28c'
p1014
aS'28b'
p1015
aS'no41g41h28g'
p1016
aS'28d'
p1017
aS'background'
p1018
aS'28f'
p1019
aS'intermittently'
p1020
aS'communications'
p1021
aS'revisionof'
p1022
aS'frozenreset'
p1023
aS't'
aS'flickering'
p1024
aS'works'
p1025
aS'screeen'
p1026
aS'disorded'
p1027
aS'trying'
p1028
aS'replacement'
p1029
aS'creen'
p1030
aS'drop'
p1031
aS'old'
p1032
aS'31237248'
p1033
aS'jan'
p1034
aS'28e'
p1035
aS'unsuccessful'
p1036
aS'back'
p1037
aS'dead'
p1038
aS'40j'
p1039
aS'separated'
p1040
aS'thread'
p1041
aS'vsb'
p1042
aS'auhn'
p1043
aS'28g'
p1044
aS'loaded'
p1045
aS'proper'
p1046
aS'home'
p1047
aS'30b'
p1048
aS'30f'
p1049
aS'30g'
p1050
aS'provided'
p1051
aS'icn'
p1052
aS'for'
p1053
aS'ife'
p1054
aS'centre'
p1055
aS'31ac'
p1056
aS'per'
p1057
aS'prop'
p1058
aS'144027'
p1059
aS'when'
p1060
aS'does'
p1061
aS'reconnecting'
p1062
aS'screenblack'
p1063
aS'foc'
p1064
aS'eso'
p1065
aS'mode'
p1066
aS'locate'
p1067
aS'be'
p1068
aS'cgk'
p1069
aS'pls'
p1070
aS'power'
p1071
aS'multiple'
p1072
aS'dropped'
p1073
aS'reach'
p1074
aS'inspect'
p1075
aS'filed'
p1076
aS'sfs'
p1077
aS'broken'
p1078
aS'pinwheeling'
p1079
aS'tdr'
p1080
aS'r'
aS'by'
p1081
aS'lights'
p1082
aS'panel'
p1083
aS'acc'
p1084
aS'on'
p1085
aS'42k'
p1086
aS'inter'
p1087
aS'ok'
p1088
aS'would'
p1089
aS'world'
p1090
aS'42a'
p1091
aS'of'
p1092
aS'42c'
p1093
aS'inoperativeintermittently'
p1094
aS'42e'
p1095
aS'42d'
p1096
aS'serviceable'
p1097
aS'scdu'
p1098
aS'cmas'
p1099
aS'srv'
p1100
aS'waded'
p1101
aS'44k58e'
p1102
aS'60a'
p1103
aS'idd'
p1104
aS'ot'
p1105
aS'or'
p1106
aS'automatically'
p1107
aS'software'
p1108
aS'repair'
p1109
aS'rev00'
p1110
aS'22j'
p1111
aS'36h45g41b'
p1112
aS'communication'
p1113
aS'image'
p1114
aS'22d'
p1115
aS'22c'
p1116
aS'functional'
p1117
aS'headphone'
p1118
aS'down'
p1119
aS'services'
p1120
aS'56j'
p1121
aS'doesnt'
p1122
aS'46j'
p1123
aS'attrition'
p1124
aS'couldnt'
p1125
aS'56d'
p1126
aS'your'
p1127
aS'56g'
p1128
aS'unavailable'
p1129
aS'preservice'
p1130
aS'log'
p1131
aS'housing'
p1132
aS'there'
p1133
aS'44020sb'
p1134
aS'avail'
p1135
aS'stuck'
p1136
aS'pa'
p1137
aS'low'
p1138
aS'way'
p1139
aS'c70445'
p1140
aS'pinwheel'
p1141
aS'icon'
p1142
aS'was'
p1143
aS'42f'
p1144
aS'function'
p1145
aS'repairiaw'
p1146
aS'rju'
p1147
aS'pwr'
p1148
aS'complete'
p1149
aS'fpga'
p1150
aS'something'
p1151
aS'attempted'
p1152
aS'but'
p1153
aS'volume'
p1154
aS'failure'
p1155
aS'properly'
p1156
aS'link'
p1157
aS'24k'
p1158
aS'795'
p1159
aS'fastened'
p1160
aS'line'
p1161
aS'ear'
p1162
aS'with'
p1163
aS'flickers'
p1164
aS'reset'
p1165
aS'pull'
p1166
aS'responding'
p1167
aS'distored'
p1168
aS'cid'
p1169
aS'inside'
p1170
aS'up'
p1171
aS'us'
p1172
aS'customers'
p1173
aS'dirty'
p1174
aS'faded'
p1175
aS'continuously'
p1176
aS'removaltouch'
p1177
aS'problem'
p1178
aS'display'
p1179
aS'intermitently'
p1180
aS'passenger'
p1181
aS'upno'
p1182
aS'required'
p1183
aS'discolored'
p1184
aS'48j'
p1185
aS'pin'
p1186
aS'48h'
p1187
aS'certain'
p1188
aS'48e'
p1189
aS'48d'
p1190
aS'cbn'
p1191
aS'remove'
p1192
aS'deep'
p1193
aS'offlineno'
p1194
aS'as'
p1195
aS'right'
p1196
aS'at'
p1197
aS'30a'
p1198
aS'pip'
p1199
aS'face'
p1200
aS'check'
p1201
aS'sb18077144007'
p1202
aS'incorrect'
p1203
aS'47c'
p1204
aS'marking'
p1205
aS'foundmessg'
p1206
aS'47d'
p1207
aS'no'
p1208
aS'47j'
p1209
aS'47'
p1210
aS'boot'
p1211
aS'rs'
p1212
aS'invalid'
p1213
aS'ng'
p1214
aS'stucked'
p1215
aS'bracket'
p1216
aS'5'
aS'airlines'
p1217
aS'test'
p1218
aS'out'
p1219
aS'noresponse'
p1220
aS'revision'
p1221
aS'picture'
p1222
aS'repeat'
p1223
aS'pinwheelsplease'
p1224
aS'sdxl'
p1225
aS'sdxc'
p1226
aS'update'
p1227
aS'dented'
p1228
aS'stay'
p1229
aS'fell'
p1230
aS'15e'
p1231
aS'15d'
p1232
aS'15g'
p1233
aS'15f'
p1234
aS'scratchy'
p1235
aS'unresponsive'
p1236
aS'requirementrev'
p1237
aS'9if'
p1238
aS'e'
aS'21072986'
p1239
aS'hellicoil'
p1240
aS'bottom'
p1241
aS'sva'
p1242
aS'eos'
p1243
aS'seatback'
p1244
aS'u'
aS'time'
p1245
aS'push'
p1246
aS'respnding'
p1247
aS'4d'
p1248
aS'4a'
p1249
aS'4c'
p1250
aS'inop44j'
p1251
a.